
    =========================== USB Port1 ===========================

Connection Status        : 0x01 (Device is connected)
Port Chain               : 1-1
Properties               : 0x01
 IsUserConnectable       : yes
 PortIsDebugCapable      : no
 PortHasMultiCompanions  : no
 PortConnectorIsTypeC    : no
ConnectionIndex          : 0x01 (Port 1)
CompanionIndex           : 0
 CompanionHubSymLnk      : USB#ROOT_HUB30#4&1d223d8f&0&0#{f18a0e88-c30c-11d0-8815-00a0c906bed8}
 CompanionPortNumber     : 0x0D (Port 13)
 -> CompanionPortChain   : 1-13

      ========================== Summary =========================
Vendor ID                : 0x0C45 (Sonix Technology Co., Ltd.)
Product ID               : 0x6366
Manufacturer String      : "Sonix Technology Co., Ltd."
Product String           : "292A-IPC-OV2710"
Serial                   : "SN0001"
USB Version              : 2.0 (480 Mbit/s)
Port maximum Speed       : High-Speed (Companion Port 1-13 is doing the SuperSpeed)
Device maximum Speed     : High-Speed
Device Connection Speed  : High-Speed
Self powered             : no
Demanded Current         : 500 mA
Used Endpoints           : 2
Video                    : UVC Version 1.00
                 -------- Default Video Modes --------
1920 x 1080 @ 1666666.66 fps: Frame Based Payload
1920 x 1080 @ 30 fps     : MJPEG
1920 x 1080 @ 5 fps      : Uncompressed
1280 x 720 @ 1666666.66 fps: Frame Based Payload
1280 x 720 @ 30 fps      : MJPEG
1280 x 720 @ 10 fps      : Uncompressed
640 x 480 @ 1666666.66 fps: Frame Based Payload
640 x 480 @ 30 fps       : MJPEG, Uncompressed
640 x 360 @ 1666666.66 fps: Frame Based Payload
640 x 360 @ 30 fps       : MJPEG, Uncompressed
320 x 240 @ 1666666.66 fps: Frame Based Payload
320 x 240 @ 30 fps       : MJPEG, Uncompressed
320 x 180 @ 1666666.66 fps: Frame Based Payload
320 x 180 @ 30 fps       : MJPEG, Uncompressed

      ======================== USB Device ========================

        +++++++++++++++++ Device Information ++++++++++++++++++
Device Description       : USB Composite Device
Device Path              : \\?\USB#VID_0C45&PID_6366#SN0001#{a5dcbf10-6530-11d2-901f-00c04fb951ed} (GUID_DEVINTERFACE_USB_DEVICE)
Kernel Name              : \Device\USBPDO-6
Device ID                : USB\VID_0C45&PID_6366\SN0001
Hardware IDs             : USB\VID_0C45&PID_6366&REV_0100 USB\VID_0C45&PID_6366
Driver KeyName           : {36fc9e60-c465-11cf-8056-444553540000}\0010 (GUID_DEVCLASS_USB)
Driver                   : \SystemRoot\System32\drivers\usbccgp.sys (Version: 10.0.19041.5794  Date: 2025-07-03  Company: Microsoft Corporation)
Driver Inf               : C:\Windows\inf\usb.inf
Legacy BusType           : PNPBus
Class                    : USB
Class GUID               : {36fc9e60-c465-11cf-8056-444553540000} (GUID_DEVCLASS_USB)
Service                  : usbccgp
Enumerator               : USB
Location Info            : Port_#0001.Hub_#0001
Address                  : 1
Location IDs             : PCIROOT(0)#PCI(1400)#USBROOT(0)#USB(1), ACPI(_SB_)#ACPI(PCI0)#ACPI(XHC_)#ACPI(RHUB)#ACPI(HS01)
Container ID             : {940f9849-5f87-5764-a6cb-3b282371c5fc}
Manufacturer Info        : (Standard USB Host Controller)
Capabilities             : 0x94 (Removable, UniqueID, SurpriseRemovalOK)
Status                   : 0x0180600A (DN_DRIVER_LOADED, DN_STARTED, DN_DISABLEABLE, DN_REMOVABLE, DN_NT_ENUMERATOR, DN_NT_DRIVER)
Problem Code             : 0
Address                  : 1
First Install Date       : 2025-08-01 22:04:18
Last Arrival Date        : 2025-08-08 22:35:02
Bus Relations            : USB\VID_0C45&PID_6366&MI_00\6&183af011&0&0000, USB\VID_0C45&PID_6366&MI_03\6&183af011&0&0003
EnhancedPowerMgmtEnabled : 0
Power State              : D0 (supported: D0, D3, wake from D0)

        +++++++++++++++++ Registry USB Flags +++++++++++++++++
HKEY_LOCAL_MACHINE\SYSTEM\CurrentControlSet\Control\usbflags\0C4563660100
 osvc                    : REG_BINARY 00 00

        ---------------- Connection Information ---------------
Connection Index         : 0x01 (Port 1)
Connection Status        : 0x01 (DeviceConnected)
Current Config Value     : 0x01 (Configuration 1)
Device Address           : 0x06 (6)
Is Hub                   : 0x00 (no)
Device Bus Speed         : 0x02 (High-Speed)
Number of open Pipes     : 0x01 (1 pipe to data endpoints)
Pipe[0]                  : EndpointID=3  Direction=IN   ScheduleOffset=0  Type=Interrupt  wMaxPacketSize=0x10    bInterval=6   -> 2160 Bits/ms = 270000 Bytes/s
Data (HexDump)           : 01 00 00 00 12 01 00 02 EF 02 01 40 45 0C 66 63   ...........@E.fc
                           00 01 02 01 03 01 01 02 00 06 00 01 00 00 00 01   ................
                           00 00 00 07 05 83 03 10 00 06 00 00 00 00         ..............

        --------------- Connection Information V2 -------------
Connection Index         : 0x01 (1)
Length                   : 0x10 (16 bytes)
SupportedUsbProtocols    : 0x03
 Usb110                  : 1 (yes, port supports USB 1.1)
 Usb200                  : 1 (yes, port supports USB 2.0)
 Usb300                  : 0 (no, port not supports USB 3.0) -> but Companion Port 1-13 does
 ReservedMBZ             : 0x00
Flags                    : 0x00
 DevIsOpAtSsOrHigher     : 0 (Device is not operating at SuperSpeed or higher)
 DevIsSsCapOrHigher      : 0 (Device is not SuperSpeed capable or higher)
 DevIsOpAtSsPlusOrHigher : 0 (Device is not operating at SuperSpeedPlus or higher)
 DevIsSsPlusCapOrHigher  : 0 (Device is not SuperSpeedPlus capable or higher)
 ReservedMBZ             : 0x00
Data (HexDump)           : 01 00 00 00 10 00 00 00 03 00 00 00 00 00 00 00   ................

    ---------------------- Device Descriptor ----------------------
bLength                  : 0x12 (18 bytes)
bDescriptorType          : 0x01 (Device Descriptor)
bcdUSB                   : 0x200 (USB Version 2.0)
bDeviceClass             : 0xEF (Miscellaneous)
bDeviceSubClass          : 0x02
bDeviceProtocol          : 0x01 (IAD - Interface Association Descriptor)
bMaxPacketSize0          : 0x40 (64 bytes)
idVendor                 : 0x0C45 (Sonix Technology Co., Ltd.)
idProduct                : 0x6366
bcdDevice                : 0x0100
iManufacturer            : 0x02 (String Descriptor 2)
 Language 0x0409         : "Sonix Technology Co., Ltd."
iProduct                 : 0x01 (String Descriptor 1)
 Language 0x0409         : "292A-IPC-OV2710"
iSerialNumber            : 0x03 (String Descriptor 3)
 Language 0x0409         : "SN0001"
bNumConfigurations       : 0x01 (1 Configuration)
Data (HexDump)           : 12 01 00 02 EF 02 01 40 45 0C 66 63 00 01 02 01   .......@E.fc....
                           03 01                                             ..

    ------------------ Configuration Descriptor -------------------
bLength                  : 0x09 (9 bytes)
bDescriptorType          : 0x02 (Configuration Descriptor)
wTotalLength             : 0x063B (1595 bytes)
bNumInterfaces           : 0x05 (5 Interfaces)
bConfigurationValue      : 0x01 (Configuration 1)
iConfiguration           : 0x00 (No String Descriptor)
bmAttributes             : 0x80
 D7: Reserved, set 1     : 0x01
 D6: Self Powered        : 0x00 (no)
 D5: Remote Wakeup       : 0x00 (no)
 D4..0: Reserved, set 0  : 0x00
MaxPower                 : 0xFA (500 mA)
Data (HexDump)           : 09 02 3B 06 05 01 00 80 FA 08 0B 00 03 0E 03 00   ..;.............
                           05 09 04 00 00 01 0E 01 00 05 0E 24 01 00 01 74   ...........$...t
                           00 C0 E1 E4 00 02 01 02 09 24 03 05 01 01 00 04   .........$......
                           00 1C 24 06 03 70 33 F0 28 11 63 2E 4A BA 2C 68   ..$..p3.(.c.J.,h
                           90 EB 33 40 16 18 01 02 03 FF FF FF 00 1B 24 06   ..3@..........$.
                           04 94 73 DF DD 3E 97 27 47 BE D9 04 ED 64 26 DC   ..s..>.'G....d&.
                           67 10 01 03 02 FF 01 00 12 24 02 01 01 02 00 00   g........$......
                           00 00 00 00 00 00 03 0E 00 00 0B 24 05 02 01 00   ...........$....
                           00 02 7F 17 00 09 24 03 06 01 01 00 04 00 07 05   ......$.........
                           83 03 10 00 06 05 25 03 40 00 09 04 01 00 00 0E   ......%.@.......
                           02 00 00 0F 24 01 02 BF 02 81 00 05 00 00 00 01   ....$...........
                           00 00 1B 24 04 01 07 59 55 59 32 00 00 10 00 80   ...$...YUY2.....
                           00 00 AA 00 38 9B 71 10 01 00 00 00 00 1E 24 05   ....8.q.......$.
                           01 00 80 07 38 04 00 40 E3 09 00 40 E3 09 00 48   ....8..@...@...H
                           3F 00 80 84 1E 00 01 80 84 1E 00 22 24 05 02 00   ?.........."$...
                           00 05 D0 02 00 00 65 04 00 00 CA 08 00 20 1C 00   ......e...... ..
                           40 42 0F 00 02 40 42 0F 00 80 84 1E 00 32 24 05   @B...@B......2$.
                           03 00 80 02 E0 01 00 00 77 01 00 00 CA 08 00 60   ........w......`
                           09 00 15 16 05 00 06 15 16 05 00 80 1A 06 00 20   ............... 
                           A1 07 00 2A 2C 0A 00 40 42 0F 00 80 84 1E 00 32   ...*,..@B......2
                           24 05 04 00 80 02 68 01 00 40 19 01 00 80 97 06   $.....h..@......
                           00 08 07 00 15 16 05 00 06 15 16 05 00 80 1A 06   ................
                           00 20 A1 07 00 2A 2C 0A 00 40 42 0F 00 80 84 1E   . ...*,..@B.....
                           00 32 24 05 05 00 40 01 F0 00 00 C0 5D 00 00 80   .2$...@.....]...
                           32 02 00 58 02 00 15 16 05 00 06 15 16 05 00 80   2..X............
                           1A 06 00 20 A1 07 00 2A 2C 0A 00 40 42 0F 00 80   ... ...*,..@B...
                           84 1E 00 32 24 05 06 00 40 01 B4 00 00 50 46 00   ...2$...@....PF.
                           00 E0 A5 01 00 C2 01 00 15 16 05 00 06 15 16 05   ................
                           00 80 1A 06 00 20 A1 07 00 2A 2C 0A 00 40 42 0F   ..... ...*,..@B.
                           00 80 84 1E 00 1E 24 05 07 00 80 07 38 04 00 40   ......$.....8..@
                           E3 09 00 40 E3 09 00 48 3F 00 80 84 1E 00 01 80   ...@...H?.......
                           84 1E 00 0B 24 06 02 07 00 01 00 00 00 00 32 24   ....$.........2$
                           07 01 00 80 07 38 04 F8 43 F1 04 D0 97 A7 1D 00   .....8..C.......
                           A4 1F 00 15 16 05 00 06 15 16 05 00 80 1A 06 00   ................
                           20 A1 07 00 2A 2C 0A 00 40 42 0F 00 80 84 1E 00    ...*,..@B......
                           32 24 07 02 00 00 05 D0 02 00 00 65 04 00 00 5E   2$.........e...^
                           1A 4D 22 1C 00 15 16 05 00 06 15 16 05 00 80 1A   .M".............
                           06 00 20 A1 07 00 2A 2C 0A 00 40 42 0F 00 80 84   .. ...*,..@B....
                           1E 00 32 24 07 03 00 80 02 E0 01 00 00 77 01 00   ..2$.........w..
                           00 CA 08 4D 62 09 00 15 16 05 00 06 15 16 05 00   ...Mb...........
                           80 1A 06 00 20 A1 07 00 2A 2C 0A 00 40 42 0F 00   .... ...*,..@B..
                           80 84 1E 00 32 24 07 04 00 80 02 68 01 00 40 19   ....2$.....h..@.
                           01 00 80 97 06 4D 0A 07 00 15 16 05 00 06 15 16   .....M..........
                           05 00 80 1A 06 00 20 A1 07 00 2A 2C 0A 00 40 42   ...... ...*,..@B
                           0F 00 80 84 1E 00 32 24 07 05 00 40 01 F0 00 00   ......2$...@....
                           C0 5D 00 00 80 32 02 4D 5A 02 00 15 16 05 00 06   .]...2.MZ.......
                           15 16 05 00 80 1A 06 00 20 A1 07 00 2A 2C 0A 00   ........ ...*,..
                           40 42 0F 00 80 84 1E 00 32 24 07 06 00 40 01 B4   @B......2$...@..
                           00 00 50 46 00 00 E0 A5 01 4D C4 01 00 15 16 05   ..PF.....M......
                           00 06 15 16 05 00 80 1A 06 00 20 A1 07 00 2A 2C   .......... ...*,
                           0A 00 40 42 0F 00 80 84 1E 00 32 24 07 07 00 80   ..@B......2$....
                           07 38 04 F8 43 F1 04 D0 97 A7 1D 00 A4 1F 00 15   .8..C...........
                           16 05 00 06 15 16 05 00 80 1A 06 00 20 A1 07 00   ............ ...
                           2A 2C 0A 00 40 42 0F 00 80 84 1E 00 06 24 0D 01   *,..@B.......$..
                           01 04 09 04 01 01 01 0E 02 00 00 07 05 81 05 80   ................
                           00 01 09 04 01 02 01 0E 02 00 00 07 05 81 05 00   ................
                           01 01 09 04 01 03 01 0E 02 00 00 07 05 81 05 20   ............... 
                           03 01 09 04 01 04 01 0E 02 00 00 07 05 81 05 20   ............... 
                           0B 01 09 04 01 05 01 0E 02 00 00 07 05 81 05 20   ............... 
                           13 01 09 04 01 06 01 0E 02 00 00 07 05 81 05 00   ................
                           14 01 09 04 02 00 00 0E 02 00 00 0E 24 01 01 8E   ............$...
                           01 82 00 06 00 00 00 01 00 1C 24 10 01 07 48 32   ..........$...H2
                           36 34 00 00 10 00 80 00 00 AA 00 38 9B 71 10 01   64.........8.q..
                           00 00 00 00 01 32 24 11 01 00 80 07 38 04 00 E0   .....2$.....8...
                           A5 01 00 40 E3 09 15 16 05 00 06 00 00 00 00 15   ...@............
                           16 05 00 80 1A 06 00 20 A1 07 00 2A 2C 0A 00 40   ....... ...*,..@
                           42 0F 00 80 84 1E 00 32 24 11 02 00 00 05 D0 02   B......2$.......
                           00 00 77 01 00 00 CA 08 15 16 05 00 06 00 00 00   ..w.............
                           00 15 16 05 00 80 1A 06 00 20 A1 07 00 2A 2C 0A   ......... ...*,.
                           00 40 42 0F 00 80 84 1E 00 32 24 11 03 00 80 02   .@B......2$.....
                           E0 01 00 00 7D 00 00 00 EE 02 15 16 05 00 06 00   ....}...........
                           00 00 00 15 16 05 00 80 1A 06 00 20 A1 07 00 2A   ........... ...*
                           2C 0A 00 40 42 0F 00 80 84 1E 00 32 24 11 04 00   ,..@B......2$...
                           80 02 68 01 00 C0 5D 00 00 80 32 02 15 16 05 00   ..h...]...2.....
                           06 00 00 00 00 15 16 05 00 80 1A 06 00 20 A1 07   ............. ..
                           00 2A 2C 0A 00 40 42 0F 00 80 84 1E 00 32 24 11   .*,..@B......2$.
                           05 00 40 01 F0 00 00 40 1F 00 00 80 BB 00 15 16   ..@....@........
                           05 00 06 00 00 00 00 15 16 05 00 80 1A 06 00 20   ............... 
                           A1 07 00 2A 2C 0A 00 40 42 0F 00 80 84 1E 00 32   ...*,..@B......2
                           24 11 06 00 40 01 B4 00 00 70 17 00 00 A0 8C 00   $...@....p......
                           15 16 05 00 06 00 00 00 00 15 16 05 00 80 1A 06   ................
                           00 20 A1 07 00 2A 2C 0A 00 40 42 0F 00 80 84 1E   . ...*,..@B.....
                           00 32 24 11 07 00 80 07 38 04 00 E0 A5 01 00 40   .2$.....8......@
                           E3 09 15 16 05 00 06 00 00 00 00 15 16 05 00 80   ................
                           1A 06 00 20 A1 07 00 2A 2C 0A 00 40 42 0F 00 80   ... ...*,..@B...
                           84 1E 00 06 24 0D 01 01 04 09 04 02 01 01 0E 02   ....$...........
                           00 00 07 05 82 05 80 00 01 09 04 02 02 01 0E 02   ................
                           00 00 07 05 82 05 00 01 01 09 04 02 03 01 0E 02   ................
                           00 00 07 05 82 05 20 03 01 09 04 02 04 01 0E 02   ...... .........
                           00 00 07 05 82 05 20 0B 01 09 04 02 05 01 0E 02   ...... .........
                           00 00 07 05 82 05 20 13 01 09 04 02 06 01 0E 02   ...... .........
                           00 00 07 05 82 05 00 14 01 08 0B 03 02 01 00 00   ................
                           00 09 04 03 00 00 01 01 00 00 09 24 01 00 01 2B   ...........$...+
                           00 01 04 0C 24 02 01 01 02 00 02 00 00 00 00 0D   ....$...........
                           24 06 02 01 02 01 00 02 00 02 00 00 09 24 03 03   $............$..
                           01 01 00 02 00 09 04 04 00 00 01 02 00 00 09 04   ................
                           04 01 01 01 02 00 00 07 24 01 03 01 01 00 1D 24   ........$......$
                           02 01 02 02 10 07 40 1F 00 11 2B 00 80 3E 00 22   ......@...+..>."
                           56 00 C0 5D 00 44 AC 00 80 BB 00 09 05 84 05 92   V..].D..........
                           01 04 00 00 07 25 01 01 00 92 01                  .....%.....

        ------------------- IAD Descriptor --------------------
bLength                  : 0x08 (8 bytes)
bDescriptorType          : 0x0B (Interface Association Descriptor)
bFirstInterface          : 0x00 (Interface 0)
bInterfaceCount          : 0x03 (3 Interfaces)
bFunctionClass           : 0x0E (Video)
bFunctionSubClass        : 0x03 (Video Interface Collection)
bFunctionProtocol        : 0x00 (PC_PROTOCOL_UNDEFINED)
iFunction                : 0x05 (String Descriptor 5)
 Language 0x0409         : "USB Camera"
Data (HexDump)           : 08 0B 00 03 0E 03 00 05                           ........

        ---------------- Interface Descriptor -----------------
bLength                  : 0x09 (9 bytes)
bDescriptorType          : 0x04 (Interface Descriptor)
bInterfaceNumber         : 0x00 (Interface 0)
bAlternateSetting        : 0x00
bNumEndpoints            : 0x01 (1 Endpoint)
bInterfaceClass          : 0x0E (Video)
bInterfaceSubClass       : 0x01 (Video Control)
bInterfaceProtocol       : 0x00
iInterface               : 0x05 (String Descriptor 5)
 Language 0x0409         : "USB Camera"
Data (HexDump)           : 09 04 00 00 01 0E 01 00 05                        .........

        ------- Video Control Interface Header Descriptor -----
bLength                  : 0x0E (14 bytes)
bDescriptorType          : 0x24 (Video Control Interface)
bDescriptorSubtype       : 0x01 (Video Control Header)
bcdUVC                   : 0x0100 (UVC Version 1.00)
wTotalLength             : 0x0074 (116 bytes)
dwClockFreq              : 0x00E4E1C0 (15 MHz)
bInCollection            : 0x02 (2 VideoStreaming interfaces)
baInterfaceNr[1]         : 0x01 (Interface 1)
baInterfaceNr[2]         : 0x02 (Interface 2)
Data (HexDump)           : 0E 24 01 00 01 74 00 C0 E1 E4 00 02 01 02         .$...t........

        ------- Video Control Output Terminal Descriptor ------
bLength                  : 0x09 (9 bytes)
bDescriptorType          : 0x24 (Video Control Interface)
bDescriptorSubtype       : 0x03 (Output Terminal)
bTerminalID              : 0x05 (5)
wTerminalType            : 0x0101 (TT_STREAMING)
bAssocTerminal           : 0x00 (Not associated with an Input Terminal)
bSourceID                : 0x04 (4)
iTerminal                : 0x00 (No String Descriptor)
Data (HexDump)           : 09 24 03 05 01 01 00 04 00                        .$.......

        --------- Video Control Extension Unit Descriptor -----
bLength                  : 0x1C (28 bytes)
bDescriptorType          : 0x24 (Video Control Interface)
bDescriptorSubtype       : 0x06 (Extension Unit)
bUnitID                  : 0x03 (ID 3)
guidExtensionCode        : {28F03370-6311-4A2E-BA2C-6890EB334016}
bNumControls             : 0x18 (24 Controls)
bNrInPins                : 0x01 (1 Input Pin)
baSourceID[1]            : 0x02
bControlSize             : 0x03 (3 bytes)
bmControls               : 0xFF, 0xFF, 0xFF
 D0                      : 1  yes -  Vendor-Specific (Optional)
 D1                      : 1  yes -  Vendor-Specific (Optional)
 D2                      : 1  yes -  Vendor-Specific (Optional)
 D3                      : 1  yes -  Vendor-Specific (Optional)
 D4                      : 1  yes -  Vendor-Specific (Optional)
 D5                      : 1  yes -  Vendor-Specific (Optional)
 D6                      : 1  yes -  Vendor-Specific (Optional)
 D7                      : 1  yes -  Vendor-Specific (Optional)
 D8                      : 1  yes -  Vendor-Specific (Optional)
 D9                      : 1  yes -  Vendor-Specific (Optional)
 D10                     : 1  yes -  Vendor-Specific (Optional)
 D11                     : 1  yes -  Vendor-Specific (Optional)
 D12                     : 1  yes -  Vendor-Specific (Optional)
 D13                     : 1  yes -  Vendor-Specific (Optional)
 D14                     : 1  yes -  Vendor-Specific (Optional)
 D15                     : 1  yes -  Vendor-Specific (Optional)
 D16                     : 1  yes -  Vendor-Specific (Optional)
 D17                     : 1  yes -  Vendor-Specific (Optional)
 D18                     : 1  yes -  Vendor-Specific (Optional)
 D19                     : 1  yes -  Vendor-Specific (Optional)
 D20                     : 1  yes -  Vendor-Specific (Optional)
 D21                     : 1  yes -  Vendor-Specific (Optional)
 D22                     : 1  yes -  Vendor-Specific (Optional)
 D23                     : 1  yes -  Vendor-Specific (Optional)
iExtension               : 0x00 (No String Descriptor)
Data (HexDump)           : 1C 24 06 03 70 33 F0 28 11 63 2E 4A BA 2C 68 90   .$..p3.(.c.J.,h.
                           EB 33 40 16 18 01 02 03 FF FF FF 00               .3@.........

        --------- Video Control Extension Unit Descriptor -----
bLength                  : 0x1B (27 bytes)
bDescriptorType          : 0x24 (Video Control Interface)
bDescriptorSubtype       : 0x06 (Extension Unit)
bUnitID                  : 0x04 (ID 4)
guidExtensionCode        : {DDDF7394-973E-4727-BED9-04ED6426DC67}
bNumControls             : 0x10 (16 Controls)
bNrInPins                : 0x01 (1 Input Pin)
baSourceID[1]            : 0x03
bControlSize             : 0x02 (2 bytes)
bmControls               : 0xFF, 0x01
 D0                      : 1  yes -  Vendor-Specific (Optional)
 D1                      : 1  yes -  Vendor-Specific (Optional)
 D2                      : 1  yes -  Vendor-Specific (Optional)
 D3                      : 1  yes -  Vendor-Specific (Optional)
 D4                      : 1  yes -  Vendor-Specific (Optional)
 D5                      : 1  yes -  Vendor-Specific (Optional)
 D6                      : 1  yes -  Vendor-Specific (Optional)
 D7                      : 1  yes -  Vendor-Specific (Optional)
 D8                      : 1  yes -  Vendor-Specific (Optional)
 D9                      : 0   no -  Vendor-Specific (Optional)
 D10                     : 0   no -  Vendor-Specific (Optional)
 D11                     : 0   no -  Vendor-Specific (Optional)
 D12                     : 0   no -  Vendor-Specific (Optional)
 D13                     : 0   no -  Vendor-Specific (Optional)
 D14                     : 0   no -  Vendor-Specific (Optional)
 D15                     : 0   no -  Vendor-Specific (Optional)
iExtension               : 0x00 (No String Descriptor)
Data (HexDump)           : 1B 24 06 04 94 73 DF DD 3E 97 27 47 BE D9 04 ED   .$...s..>.'G....
                           64 26 DC 67 10 01 03 02 FF 01 00                  d&.g.......

        -------- Video Control Input Terminal Descriptor ------
bLength                  : 0x12 (18 bytes)
bDescriptorType          : 0x24 (Video Control Interface)
bDescriptorSubtype       : 0x02 (Input Terminal)
bTerminalID              : 0x01 (1)
wTerminalType            : 0x0201 (ITT_CAMERA)
bAssocTerminal           : 0x00 (Not associated with an Output Terminal)
iTerminal                : 0x00 (No String Descriptor)
Camera Input Terminal Data:
wObjectiveFocalLengthMin : 0x0000
wObjectiveFocalLengthMax : 0x0000
wOcularFocalLength       : 0x0000
bControlSize             : 0x03 (3 bytes)
bmControls               : 0x0E, 0x00, 0x00
 D0                      : 0   no -  Scanning Mode
 D1                      : 1  yes -  Auto-Exposure Mode
 D2                      : 1  yes -  Auto-Exposure Priority
 D3                      : 1  yes -  Exposure Time (Absolute)
 D4                      : 0   no -  Exposure Time (Relative)
 D5                      : 0   no -  Focus (Absolute)
 D6                      : 0   no -  Focus (Relative)
 D7                      : 0   no -  Iris (Absolute)
 D8                      : 0   no -  Iris (Relative)
 D9                      : 0   no -  Zoom (Absolute)
 D10                     : 0   no -  Zoom (Relative)
 D11                     : 0   no -  Pan (Absolute)
 D12                     : 0   no -  Pan (Relative)
 D13                     : 0   no -  Roll (Absolute)
 D14                     : 0   no -  Roll (Relative)
 D15                     : 0   no -  Tilt (Absolute)
 D16                     : 0   no -  Tilt (Relative)
 D17                     : 0   no -  Focus Auto
 D18                     : 0   no -  Reserved
 D19                     : 0   no -  Reserved
 D20                     : 0   no -  Reserved
 D21                     : 0   no -  Reserved
 D22                     : 0   no -  Reserved
 D23                     : 0   no -  Reserved
Data (HexDump)           : 12 24 02 01 01 02 00 00 00 00 00 00 00 00 03 0E   .$..............
                           00 00                                             ..

        -------- Video Control Processing Unit Descriptor -----
bLength                  : 0x0B (11 bytes)
bDescriptorType          : 0x24 (Video Control Interface)
bDescriptorSubtype       : 0x05 (Processing Unit)
bUnitID                  : 0x02 (2)
bSourceID                : 0x01 (1)
wMaxMultiplier           : 0x0000
bControlSize             : 0x02 (2 bytes)
bmControls               : 0x7F, 0x17
 D0                      : 1  yes -  Brightness
 D1                      : 1  yes -  Contrast
 D2                      : 1  yes -  Hue
 D3                      : 1  yes -  Saturation
 D4                      : 1  yes -  Sharpness
 D5                      : 1  yes -  Gamma
 D6                      : 1  yes -  White Balance Temperature
 D7                      : 0   no -  White Balance Component
 D8                      : 1  yes -  Backlight Compensation
 D9                      : 1  yes -  Gain
 D10                     : 1  yes -  Power Line Frequency
 D11                     : 0   no -  Hue, Auto
 D12                     : 1  yes -  White Balance Temperature, Auto
 D13                     : 0   no -  White Balance Component, Auto
 D14                     : 0   no -  Digital Multiplier
 D15                     : 0   no -  Digital Multiplier Limit
iProcessing              : 0x00 (No String Descriptor)
Data (HexDump)           : 0B 24 05 02 01 00 00 02 7F 17 00                  .$.........

        ------- Video Control Output Terminal Descriptor ------
bLength                  : 0x09 (9 bytes)
bDescriptorType          : 0x24 (Video Control Interface)
bDescriptorSubtype       : 0x03 (Output Terminal)
bTerminalID              : 0x06 (6)
wTerminalType            : 0x0101 (TT_STREAMING)
bAssocTerminal           : 0x00 (Not associated with an Input Terminal)
bSourceID                : 0x04 (4)
iTerminal                : 0x00 (No String Descriptor)
Data (HexDump)           : 09 24 03 06 01 01 00 04 00                        .$.......

        ----------------- Endpoint Descriptor -----------------
bLength                  : 0x07 (7 bytes)
bDescriptorType          : 0x05 (Endpoint Descriptor)
bEndpointAddress         : 0x83 (Direction=IN EndpointID=3)
bmAttributes             : 0x03 (TransferType=Interrupt)
wMaxPacketSize           : 0x0010
 Bits 15..13             : 0x00 (reserved, must be zero)
 Bits 12..11             : 0x00 (0 additional transactions per microframe -> allows 1..1024 bytes per packet)
 Bits 10..0              : 0x10 (16 bytes per packet)
bInterval                : 0x06 (32 microframes -> 4 ms)
Data (HexDump)           : 07 05 83 03 10 00 06                              .......

        --- Class-specific VC Interrupt Endpoint Descriptor ---
bLength                  : 0x05 (5 bytes)
bDescriptorType          : 0x25 (Video Control Endpoint)
bDescriptorSubtype       : 0x03 (Interrupt)
wMaxTransferSize         : 0x0040 (64 bytes)
Data (HexDump)           : 05 25 03 40 00                                    .%.@.

        ---------------- Interface Descriptor -----------------
bLength                  : 0x09 (9 bytes)
bDescriptorType          : 0x04 (Interface Descriptor)
bInterfaceNumber         : 0x01 (Interface 1)
bAlternateSetting        : 0x00
bNumEndpoints            : 0x00 (Default Control Pipe only)
bInterfaceClass          : 0x0E (Video)
bInterfaceSubClass       : 0x02 (Video Streaming)
bInterfaceProtocol       : 0x00
iInterface               : 0x00 (No String Descriptor)
Data (HexDump)           : 09 04 01 00 00 0E 02 00 00                        .........

        ---- VC-Specific VS Video Input Header Descriptor -----
bLength                  : 0x0F (15 bytes)
bDescriptorType          : 0x24 (Video Streaming Interface)
bDescriptorSubtype       : 0x01 (Input Header)
bNumFormats              : 0x02
wTotalLength             : 0x02BF (703 bytes)
bEndpointAddress         : 0x81 (Direction=IN  EndpointID=1)
bmInfo                   : 0x00 (Dynamic Format Change not supported)
bTerminalLink            : 0x05 (Output Terminal ID 5)
bStillCaptureMethod      : 0x00 (No Still Capture)
nbTriggerSupport         : 0x00 (Hardware Triggering not supported)
bTriggerUsage            : 0x00 (Host will initiate still image capture)
bControlSize             : 0x01 (1 bytes each)
Video Payload Format 1   : 0x00
 D0                      : 0   no -  Key Frame Rate
 D1                      : 0   no -  P Frame Rate
 D2                      : 0   no -  Compression Quality
 D3                      : 0   no -  Compression Window Size
 D4                      : 0   no -  Generate Key Frame
 D5                      : 0   no -  Update Frame Segment
 D6                      : 0   no -  Reserved
 D7                      : 0   no -  Reserved
Video Payload Format 2   : 0x00
 D0                      : 0   no -  Key Frame Rate
 D1                      : 0   no -  P Frame Rate
 D2                      : 0   no -  Compression Quality
 D3                      : 0   no -  Compression Window Size
 D4                      : 0   no -  Generate Key Frame
 D5                      : 0   no -  Update Frame Segment
 D6                      : 0   no -  Reserved
 D7                      : 0   no -  Reserved
Data (HexDump)           : 0F 24 01 02 BF 02 81 00 05 00 00 00 01 00 00      .$.............

        ------- VS Uncompressed Format Type Descriptor --------
bLength                  : 0x1B (27 bytes)
bDescriptorType          : 0x24 (Video Streaming Interface)
bDescriptorSubtype       : 0x04 (Uncompressed Format Type)
bFormatIndex             : 0x01 (1)
bNumFrameDescriptors     : 0x07 (7 Frame Descriptors)
guidFormat               : {32595559-0000-0010-8000-00AA00389B71} (YUY2)
bBitsPerPixel            : 0x10 (16 bits per pixel)
bDefaultFrameIndex       : 0x01 (Index 1)
bAspectRatioX            : 0x00
bAspectRatioY            : 0x00
bmInterlaceFlags         : 0x00
 D0 IL stream or variable: 0 (no)
 D1 Fields per frame     : 0 (2 fields)
 D2 Field 1 first        : 0 (no)
 D3 Reserved             : 0
 D4..5 Field pattern     : 0 (Field 1 only)
 D6..7 Display Mode      : 0 (Bob only)
bCopyProtect             : 0x00 (No restrictions)
*!*ERROR:  no Color Matching Descriptor for this format
Data (HexDump)           : 1B 24 04 01 07 59 55 59 32 00 00 10 00 80 00 00   .$...YUY2.......
                           AA 00 38 9B 71 10 01 00 00 00 00                  ..8.q......

        -------- VS Uncompressed Frame Type Descriptor --------
---> This is the Default (optimum) Frame index
bLength                  : 0x1E (30 bytes)
bDescriptorType          : 0x24 (Video Streaming Interface)
bDescriptorSubtype       : 0x05 (Uncompressed Frame Type)
bFrameIndex              : 0x01
bmCapabilities           : 0x00
wWidth                   : 0x0780 (1920)
wHeight                  : 0x0438 (1080)
dwMinBitRate             : 0x09E34000 (165888000 bps -> 20.736 MB/s)
dwMaxBitRate             : 0x09E34000 (165888000 bps -> 20.736 MB/s)
dwMaxVideoFrameBufferSize: 0x003F4800 (4147200 bytes)
dwDefaultFrameInterval   : 0x001E8480 (200.0000 ms -> 5.0000 fps)
bFrameIntervalType       : 0x01 (1 discrete frame interval supported)
adwFrameInterval[1]      : 0x001E8480 (200.0000 ms -> 5.0000 fps)
Data (HexDump)           : 1E 24 05 01 00 80 07 38 04 00 40 E3 09 00 40 E3   .$.....8..@...@.
                           09 00 48 3F 00 80 84 1E 00 01 80 84 1E 00         ..H?..........

        -------- VS Uncompressed Frame Type Descriptor --------
bLength                  : 0x22 (34 bytes)
bDescriptorType          : 0x24 (Video Streaming Interface)
bDescriptorSubtype       : 0x05 (Uncompressed Frame Type)
bFrameIndex              : 0x02
bmCapabilities           : 0x00
wWidth                   : 0x0500 (1280)
wHeight                  : 0x02D0 (720)
dwMinBitRate             : 0x04650000 (73728000 bps -> 9.216 MB/s)
dwMaxBitRate             : 0x08CA0000 (147456000 bps -> 18.432 MB/s)
dwMaxVideoFrameBufferSize: 0x001C2000 (1843200 bytes)
dwDefaultFrameInterval   : 0x000F4240 (100.0000 ms -> 10.0000 fps)
bFrameIntervalType       : 0x02 (2 discrete frame intervals supported)
adwFrameInterval[1]      : 0x000F4240 (100.0000 ms -> 10.0000 fps)
adwFrameInterval[2]      : 0x001E8480 (200.0000 ms -> 5.0000 fps)
Data (HexDump)           : 22 24 05 02 00 00 05 D0 02 00 00 65 04 00 00 CA   "$.........e....
                           08 00 20 1C 00 40 42 0F 00 02 40 42 0F 00 80 84   .. ..@B...@B....
                           1E 00                                             ..

        -------- VS Uncompressed Frame Type Descriptor --------
bLength                  : 0x32 (50 bytes)
bDescriptorType          : 0x24 (Video Streaming Interface)
bDescriptorSubtype       : 0x05 (Uncompressed Frame Type)
bFrameIndex              : 0x03
bmCapabilities           : 0x00
wWidth                   : 0x0280 (640)
wHeight                  : 0x01E0 (480)
dwMinBitRate             : 0x01770000 (24576000 bps -> 3.72 MB/s)
dwMaxBitRate             : 0x08CA0000 (147456000 bps -> 18.432 MB/s)
dwMaxVideoFrameBufferSize: 0x00096000 (614400 bytes)
dwDefaultFrameInterval   : 0x00051615 (33.3333 ms -> 30.0000 fps)
bFrameIntervalType       : 0x06 (6 discrete frame intervals supported)
adwFrameInterval[1]      : 0x00051615 (33.3333 ms -> 30.0000 fps)
adwFrameInterval[2]      : 0x00061A80 (40.0000 ms -> 25.0000 fps)
adwFrameInterval[3]      : 0x0007A120 (50.0000 ms -> 20.0000 fps)
adwFrameInterval[4]      : 0x000A2C2A (66.6666 ms -> 15.0000 fps)
adwFrameInterval[5]      : 0x000F4240 (100.0000 ms -> 10.0000 fps)
adwFrameInterval[6]      : 0x001E8480 (200.0000 ms -> 5.0000 fps)
Data (HexDump)           : 32 24 05 03 00 80 02 E0 01 00 00 77 01 00 00 CA   2$.........w....
                           08 00 60 09 00 15 16 05 00 06 15 16 05 00 80 1A   ..`.............
                           06 00 20 A1 07 00 2A 2C 0A 00 40 42 0F 00 80 84   .. ...*,..@B....
                           1E 00                                             ..

        -------- VS Uncompressed Frame Type Descriptor --------
bLength                  : 0x32 (50 bytes)
bDescriptorType          : 0x24 (Video Streaming Interface)
bDescriptorSubtype       : 0x05 (Uncompressed Frame Type)
bFrameIndex              : 0x04
bmCapabilities           : 0x00
wWidth                   : 0x0280 (640)
wHeight                  : 0x0168 (360)
dwMinBitRate             : 0x01194000 (18432000 bps -> 2.304 MB/s)
dwMaxBitRate             : 0x06978000 (110592000 bps -> 13.824 MB/s)
dwMaxVideoFrameBufferSize: 0x00070800 (460800 bytes)
dwDefaultFrameInterval   : 0x00051615 (33.3333 ms -> 30.0000 fps)
bFrameIntervalType       : 0x06 (6 discrete frame intervals supported)
adwFrameInterval[1]      : 0x00051615 (33.3333 ms -> 30.0000 fps)
adwFrameInterval[2]      : 0x00061A80 (40.0000 ms -> 25.0000 fps)
adwFrameInterval[3]      : 0x0007A120 (50.0000 ms -> 20.0000 fps)
adwFrameInterval[4]      : 0x000A2C2A (66.6666 ms -> 15.0000 fps)
adwFrameInterval[5]      : 0x000F4240 (100.0000 ms -> 10.0000 fps)
adwFrameInterval[6]      : 0x001E8480 (200.0000 ms -> 5.0000 fps)
Data (HexDump)           : 32 24 05 04 00 80 02 68 01 00 40 19 01 00 80 97   2$.....h..@.....
                           06 00 08 07 00 15 16 05 00 06 15 16 05 00 80 1A   ................
                           06 00 20 A1 07 00 2A 2C 0A 00 40 42 0F 00 80 84   .. ...*,..@B....
                           1E 00                                             ..

        -------- VS Uncompressed Frame Type Descriptor --------
bLength                  : 0x32 (50 bytes)
bDescriptorType          : 0x24 (Video Streaming Interface)
bDescriptorSubtype       : 0x05 (Uncompressed Frame Type)
bFrameIndex              : 0x05
bmCapabilities           : 0x00
wWidth                   : 0x0140 (320)
wHeight                  : 0x00F0 (240)
dwMinBitRate             : 0x005DC000 (6144000 bps -> 768 KB/s)
dwMaxBitRate             : 0x02328000 (36864000 bps -> 4.608 MB/s)
dwMaxVideoFrameBufferSize: 0x00025800 (153600 bytes)
dwDefaultFrameInterval   : 0x00051615 (33.3333 ms -> 30.0000 fps)
bFrameIntervalType       : 0x06 (6 discrete frame intervals supported)
adwFrameInterval[1]      : 0x00051615 (33.3333 ms -> 30.0000 fps)
adwFrameInterval[2]      : 0x00061A80 (40.0000 ms -> 25.0000 fps)
adwFrameInterval[3]      : 0x0007A120 (50.0000 ms -> 20.0000 fps)
adwFrameInterval[4]      : 0x000A2C2A (66.6666 ms -> 15.0000 fps)
adwFrameInterval[5]      : 0x000F4240 (100.0000 ms -> 10.0000 fps)
adwFrameInterval[6]      : 0x001E8480 (200.0000 ms -> 5.0000 fps)
Data (HexDump)           : 32 24 05 05 00 40 01 F0 00 00 C0 5D 00 00 80 32   2$...@.....]...2
                           02 00 58 02 00 15 16 05 00 06 15 16 05 00 80 1A   ..X.............
                           06 00 20 A1 07 00 2A 2C 0A 00 40 42 0F 00 80 84   .. ...*,..@B....
                           1E 00                                             ..

        -------- VS Uncompressed Frame Type Descriptor --------
bLength                  : 0x32 (50 bytes)
bDescriptorType          : 0x24 (Video Streaming Interface)
bDescriptorSubtype       : 0x05 (Uncompressed Frame Type)
bFrameIndex              : 0x06
bmCapabilities           : 0x00
wWidth                   : 0x0140 (320)
wHeight                  : 0x00B4 (180)
dwMinBitRate             : 0x00465000 (4608000 bps -> 576 KB/s)
dwMaxBitRate             : 0x01A5E000 (27648000 bps -> 3.456 MB/s)
dwMaxVideoFrameBufferSize: 0x0001C200 (115200 bytes)
dwDefaultFrameInterval   : 0x00051615 (33.3333 ms -> 30.0000 fps)
bFrameIntervalType       : 0x06 (6 discrete frame intervals supported)
adwFrameInterval[1]      : 0x00051615 (33.3333 ms -> 30.0000 fps)
adwFrameInterval[2]      : 0x00061A80 (40.0000 ms -> 25.0000 fps)
adwFrameInterval[3]      : 0x0007A120 (50.0000 ms -> 20.0000 fps)
adwFrameInterval[4]      : 0x000A2C2A (66.6666 ms -> 15.0000 fps)
adwFrameInterval[5]      : 0x000F4240 (100.0000 ms -> 10.0000 fps)
adwFrameInterval[6]      : 0x001E8480 (200.0000 ms -> 5.0000 fps)
Data (HexDump)           : 32 24 05 06 00 40 01 B4 00 00 50 46 00 00 E0 A5   2$...@....PF....
                           01 00 C2 01 00 15 16 05 00 06 15 16 05 00 80 1A   ................
                           06 00 20 A1 07 00 2A 2C 0A 00 40 42 0F 00 80 84   .. ...*,..@B....
                           1E 00                                             ..

        -------- VS Uncompressed Frame Type Descriptor --------
bLength                  : 0x1E (30 bytes)
bDescriptorType          : 0x24 (Video Streaming Interface)
bDescriptorSubtype       : 0x05 (Uncompressed Frame Type)
bFrameIndex              : 0x07
bmCapabilities           : 0x00
wWidth                   : 0x0780 (1920)
wHeight                  : 0x0438 (1080)
dwMinBitRate             : 0x09E34000 (165888000 bps -> 20.736 MB/s)
dwMaxBitRate             : 0x09E34000 (165888000 bps -> 20.736 MB/s)
dwMaxVideoFrameBufferSize: 0x003F4800 (4147200 bytes)
dwDefaultFrameInterval   : 0x001E8480 (200.0000 ms -> 5.0000 fps)
bFrameIntervalType       : 0x01 (1 discrete frame interval supported)
adwFrameInterval[1]      : 0x001E8480 (200.0000 ms -> 5.0000 fps)
Data (HexDump)           : 1E 24 05 07 00 80 07 38 04 00 40 E3 09 00 40 E3   .$.....8..@...@.
                           09 00 48 3F 00 80 84 1E 00 01 80 84 1E 00         ..H?..........

        ----- Video Streaming MJPEG Format Type Descriptor ----
bLength                  : 0x0B (11 bytes)
bDescriptorType          : 0x24 (Video Streaming Interface)
bDescriptorSubtype       : 0x06 (Format MJPEG)
bFormatIndex             : 0x02 (2)
bNumFrameDescriptors     : 0x07 (7)
bmFlags                  : 0x00 (Sample size is not fixed)
bDefaultFrameIndex       : 0x01 (1)
bAspectRatioX            : 0x00
bAspectRatioY            : 0x00
bmInterlaceFlags         : 0x00
 D0 IL stream or variable: 0 (no)
 D1 Fields per frame     : 0 (2 fields)
 D2 Field 1 first        : 0 (no)
 D3 Reserved             : 0
 D4..5 Field pattern     : 0 (Field 1 only)
 D6..7 Display Mode      : 0 (Bob only)
bCopyProtect             : 0x00 (No restrictions)
Data (HexDump)           : 0B 24 06 02 07 00 01 00 00 00 00                  .$.........

        ----- Video Streaming MJPEG Frame Type Descriptor -----
---> This is the Default (optimum) Frame index
bLength                  : 0x32 (50 bytes)
bDescriptorType          : 0x24 (Video Streaming Interface)
bDescriptorSubtype       : 0x07 (MJPEG Frame Type)
bFrameIndex              : 0x01
bmCapabilities           : 0x00
wWidth                   : 0x0780 (1920)
wHeight                  : 0x0438 (1080)
dwMinBitRate             : 0x04F143F8 (82920440 bps -> 10.365 MB/s)
dwMaxBitRate             : 0x1DA797D0 (497522640 bps -> 62.190 MB/s)
dwMaxVideoFrameBufferSize: 0x001FA400 (2073600 bytes)
dwDefaultFrameInterval   : 0x00051615 (33.3333 ms -> 30.0000 fps)
bFrameIntervalType       : 0x06 (6 discrete frame intervals supported)
adwFrameInterval[1]      : 0x00051615 (33.3333 ms -> 30.0000 fps)
adwFrameInterval[2]      : 0x00061A80 (40.0000 ms -> 25.0000 fps)
adwFrameInterval[3]      : 0x0007A120 (50.0000 ms -> 20.0000 fps)
adwFrameInterval[4]      : 0x000A2C2A (66.6666 ms -> 15.0000 fps)
adwFrameInterval[5]      : 0x000F4240 (100.0000 ms -> 10.0000 fps)
adwFrameInterval[6]      : 0x001E8480 (200.0000 ms -> 5.0000 fps)
Data (HexDump)           : 32 24 07 01 00 80 07 38 04 F8 43 F1 04 D0 97 A7   2$.....8..C.....
                           1D 00 A4 1F 00 15 16 05 00 06 15 16 05 00 80 1A   ................
                           06 00 20 A1 07 00 2A 2C 0A 00 40 42 0F 00 80 84   .. ...*,..@B....
                           1E 00                                             ..

        ----- Video Streaming MJPEG Frame Type Descriptor -----
bLength                  : 0x32 (50 bytes)
bDescriptorType          : 0x24 (Video Streaming Interface)
bDescriptorSubtype       : 0x07 (MJPEG Frame Type)
bFrameIndex              : 0x02
bmCapabilities           : 0x00
wWidth                   : 0x0500 (1280)
wHeight                  : 0x02D0 (720)
dwMinBitRate             : 0x04650000 (73728000 bps -> 9.216 MB/s)
dwMaxBitRate             : 0x1A5E0000 (442368000 bps -> 55.296 MB/s)
dwMaxVideoFrameBufferSize: 0x001C224D (1843789 bytes)
dwDefaultFrameInterval   : 0x00051615 (33.3333 ms -> 30.0000 fps)
bFrameIntervalType       : 0x06 (6 discrete frame intervals supported)
adwFrameInterval[1]      : 0x00051615 (33.3333 ms -> 30.0000 fps)
adwFrameInterval[2]      : 0x00061A80 (40.0000 ms -> 25.0000 fps)
adwFrameInterval[3]      : 0x0007A120 (50.0000 ms -> 20.0000 fps)
adwFrameInterval[4]      : 0x000A2C2A (66.6666 ms -> 15.0000 fps)
adwFrameInterval[5]      : 0x000F4240 (100.0000 ms -> 10.0000 fps)
adwFrameInterval[6]      : 0x001E8480 (200.0000 ms -> 5.0000 fps)
Data (HexDump)           : 32 24 07 02 00 00 05 D0 02 00 00 65 04 00 00 5E   2$.........e...^
                           1A 4D 22 1C 00 15 16 05 00 06 15 16 05 00 80 1A   .M".............
                           06 00 20 A1 07 00 2A 2C 0A 00 40 42 0F 00 80 84   .. ...*,..@B....
                           1E 00                                             ..

        ----- Video Streaming MJPEG Frame Type Descriptor -----
bLength                  : 0x32 (50 bytes)
bDescriptorType          : 0x24 (Video Streaming Interface)
bDescriptorSubtype       : 0x07 (MJPEG Frame Type)
bFrameIndex              : 0x03
bmCapabilities           : 0x00
wWidth                   : 0x0280 (640)
wHeight                  : 0x01E0 (480)
dwMinBitRate             : 0x01770000 (24576000 bps -> 3.72 MB/s)
dwMaxBitRate             : 0x08CA0000 (147456000 bps -> 18.432 MB/s)
dwMaxVideoFrameBufferSize: 0x0009624D (614989 bytes)
dwDefaultFrameInterval   : 0x00051615 (33.3333 ms -> 30.0000 fps)
bFrameIntervalType       : 0x06 (6 discrete frame intervals supported)
adwFrameInterval[1]      : 0x00051615 (33.3333 ms -> 30.0000 fps)
adwFrameInterval[2]      : 0x00061A80 (40.0000 ms -> 25.0000 fps)
adwFrameInterval[3]      : 0x0007A120 (50.0000 ms -> 20.0000 fps)
adwFrameInterval[4]      : 0x000A2C2A (66.6666 ms -> 15.0000 fps)
adwFrameInterval[5]      : 0x000F4240 (100.0000 ms -> 10.0000 fps)
adwFrameInterval[6]      : 0x001E8480 (200.0000 ms -> 5.0000 fps)
Data (HexDump)           : 32 24 07 03 00 80 02 E0 01 00 00 77 01 00 00 CA   2$.........w....
                           08 4D 62 09 00 15 16 05 00 06 15 16 05 00 80 1A   .Mb.............
                           06 00 20 A1 07 00 2A 2C 0A 00 40 42 0F 00 80 84   .. ...*,..@B....
                           1E 00                                             ..

        ----- Video Streaming MJPEG Frame Type Descriptor -----
bLength                  : 0x32 (50 bytes)
bDescriptorType          : 0x24 (Video Streaming Interface)
bDescriptorSubtype       : 0x07 (MJPEG Frame Type)
bFrameIndex              : 0x04
bmCapabilities           : 0x00
wWidth                   : 0x0280 (640)
wHeight                  : 0x0168 (360)
dwMinBitRate             : 0x01194000 (18432000 bps -> 2.304 MB/s)
dwMaxBitRate             : 0x06978000 (110592000 bps -> 13.824 MB/s)
dwMaxVideoFrameBufferSize: 0x00070A4D (461389 bytes)
dwDefaultFrameInterval   : 0x00051615 (33.3333 ms -> 30.0000 fps)
bFrameIntervalType       : 0x06 (6 discrete frame intervals supported)
adwFrameInterval[1]      : 0x00051615 (33.3333 ms -> 30.0000 fps)
adwFrameInterval[2]      : 0x00061A80 (40.0000 ms -> 25.0000 fps)
adwFrameInterval[3]      : 0x0007A120 (50.0000 ms -> 20.0000 fps)
adwFrameInterval[4]      : 0x000A2C2A (66.6666 ms -> 15.0000 fps)
adwFrameInterval[5]      : 0x000F4240 (100.0000 ms -> 10.0000 fps)
adwFrameInterval[6]      : 0x001E8480 (200.0000 ms -> 5.0000 fps)
Data (HexDump)           : 32 24 07 04 00 80 02 68 01 00 40 19 01 00 80 97   2$.....h..@.....
                           06 4D 0A 07 00 15 16 05 00 06 15 16 05 00 80 1A   .M..............
                           06 00 20 A1 07 00 2A 2C 0A 00 40 42 0F 00 80 84   .. ...*,..@B....
                           1E 00                                             ..

        ----- Video Streaming MJPEG Frame Type Descriptor -----
bLength                  : 0x32 (50 bytes)
bDescriptorType          : 0x24 (Video Streaming Interface)
bDescriptorSubtype       : 0x07 (MJPEG Frame Type)
bFrameIndex              : 0x05
bmCapabilities           : 0x00
wWidth                   : 0x0140 (320)
wHeight                  : 0x00F0 (240)
dwMinBitRate             : 0x005DC000 (6144000 bps -> 768 KB/s)
dwMaxBitRate             : 0x02328000 (36864000 bps -> 4.608 MB/s)
dwMaxVideoFrameBufferSize: 0x00025A4D (154189 bytes)
dwDefaultFrameInterval   : 0x00051615 (33.3333 ms -> 30.0000 fps)
bFrameIntervalType       : 0x06 (6 discrete frame intervals supported)
adwFrameInterval[1]      : 0x00051615 (33.3333 ms -> 30.0000 fps)
adwFrameInterval[2]      : 0x00061A80 (40.0000 ms -> 25.0000 fps)
adwFrameInterval[3]      : 0x0007A120 (50.0000 ms -> 20.0000 fps)
adwFrameInterval[4]      : 0x000A2C2A (66.6666 ms -> 15.0000 fps)
adwFrameInterval[5]      : 0x000F4240 (100.0000 ms -> 10.0000 fps)
adwFrameInterval[6]      : 0x001E8480 (200.0000 ms -> 5.0000 fps)
Data (HexDump)           : 32 24 07 05 00 40 01 F0 00 00 C0 5D 00 00 80 32   2$...@.....]...2
                           02 4D 5A 02 00 15 16 05 00 06 15 16 05 00 80 1A   .MZ.............
                           06 00 20 A1 07 00 2A 2C 0A 00 40 42 0F 00 80 84   .. ...*,..@B....
                           1E 00                                             ..

        ----- Video Streaming MJPEG Frame Type Descriptor -----
bLength                  : 0x32 (50 bytes)
bDescriptorType          : 0x24 (Video Streaming Interface)
bDescriptorSubtype       : 0x07 (MJPEG Frame Type)
bFrameIndex              : 0x06
bmCapabilities           : 0x00
wWidth                   : 0x0140 (320)
wHeight                  : 0x00B4 (180)
dwMinBitRate             : 0x00465000 (4608000 bps -> 576 KB/s)
dwMaxBitRate             : 0x01A5E000 (27648000 bps -> 3.456 MB/s)
dwMaxVideoFrameBufferSize: 0x0001C44D (115789 bytes)
dwDefaultFrameInterval   : 0x00051615 (33.3333 ms -> 30.0000 fps)
bFrameIntervalType       : 0x06 (6 discrete frame intervals supported)
adwFrameInterval[1]      : 0x00051615 (33.3333 ms -> 30.0000 fps)
adwFrameInterval[2]      : 0x00061A80 (40.0000 ms -> 25.0000 fps)
adwFrameInterval[3]      : 0x0007A120 (50.0000 ms -> 20.0000 fps)
adwFrameInterval[4]      : 0x000A2C2A (66.6666 ms -> 15.0000 fps)
adwFrameInterval[5]      : 0x000F4240 (100.0000 ms -> 10.0000 fps)
adwFrameInterval[6]      : 0x001E8480 (200.0000 ms -> 5.0000 fps)
Data (HexDump)           : 32 24 07 06 00 40 01 B4 00 00 50 46 00 00 E0 A5   2$...@....PF....
                           01 4D C4 01 00 15 16 05 00 06 15 16 05 00 80 1A   .M..............
                           06 00 20 A1 07 00 2A 2C 0A 00 40 42 0F 00 80 84   .. ...*,..@B....
                           1E 00                                             ..

        ----- Video Streaming MJPEG Frame Type Descriptor -----
bLength                  : 0x32 (50 bytes)
bDescriptorType          : 0x24 (Video Streaming Interface)
bDescriptorSubtype       : 0x07 (MJPEG Frame Type)
bFrameIndex              : 0x07
bmCapabilities           : 0x00
wWidth                   : 0x0780 (1920)
wHeight                  : 0x0438 (1080)
dwMinBitRate             : 0x04F143F8 (82920440 bps -> 10.365 MB/s)
dwMaxBitRate             : 0x1DA797D0 (497522640 bps -> 62.190 MB/s)
dwMaxVideoFrameBufferSize: 0x001FA400 (2073600 bytes)
dwDefaultFrameInterval   : 0x00051615 (33.3333 ms -> 30.0000 fps)
bFrameIntervalType       : 0x06 (6 discrete frame intervals supported)
adwFrameInterval[1]      : 0x00051615 (33.3333 ms -> 30.0000 fps)
adwFrameInterval[2]      : 0x00061A80 (40.0000 ms -> 25.0000 fps)
adwFrameInterval[3]      : 0x0007A120 (50.0000 ms -> 20.0000 fps)
adwFrameInterval[4]      : 0x000A2C2A (66.6666 ms -> 15.0000 fps)
adwFrameInterval[5]      : 0x000F4240 (100.0000 ms -> 10.0000 fps)
adwFrameInterval[6]      : 0x001E8480 (200.0000 ms -> 5.0000 fps)
Data (HexDump)           : 32 24 07 07 00 80 07 38 04 F8 43 F1 04 D0 97 A7   2$.....8..C.....
                           1D 00 A4 1F 00 15 16 05 00 06 15 16 05 00 80 1A   ................
                           06 00 20 A1 07 00 2A 2C 0A 00 40 42 0F 00 80 84   .. ...*,..@B....
                           1E 00                                             ..

        ------- VS Color Matching Descriptor Descriptor -------
bLength                  : 0x06 (6 bytes)
bDescriptorType          : 0x24 (Video Streaming Interface)
bDescriptorSubtype       : 0x0D (Color Matching)
bColorPrimaries          : 0x01 (BT.709, sRGB)
bTransferCharacteristics : 0x01 (BT.709)
bMatrixCoefficients      : 0x04 (SMPTE 170M)
Data (HexDump)           : 06 24 0D 01 01 04                                 .$....

        ---------------- Interface Descriptor -----------------
bLength                  : 0x09 (9 bytes)
bDescriptorType          : 0x04 (Interface Descriptor)
bInterfaceNumber         : 0x01 (Interface 1)
bAlternateSetting        : 0x01
bNumEndpoints            : 0x01 (1 Endpoint)
bInterfaceClass          : 0x0E (Video)
bInterfaceSubClass       : 0x02 (Video Streaming)
bInterfaceProtocol       : 0x00
iInterface               : 0x00 (No String Descriptor)
Data (HexDump)           : 09 04 01 01 01 0E 02 00 00                        .........

        ----------------- Endpoint Descriptor -----------------
bLength                  : 0x07 (7 bytes)
bDescriptorType          : 0x05 (Endpoint Descriptor)
bEndpointAddress         : 0x81 (Direction=IN EndpointID=1)
bmAttributes             : 0x05 (TransferType=Isochronous  SyncType=Asynchronous  EndpointType=Data)
wMaxPacketSize           : 0x0080
 Bits 15..13             : 0x00 (reserved, must be zero)
 Bits 12..11             : 0x00 (0 additional transactions per microframe -> allows 1..1024 bytes per packet)
 Bits 10..0              : 0x80 (128 bytes per packet)
bInterval                : 0x01 (1 microframe -> 0.125 ms)
Data (HexDump)           : 07 05 81 05 80 00 01                              .......

        ---------------- Interface Descriptor -----------------
bLength                  : 0x09 (9 bytes)
bDescriptorType          : 0x04 (Interface Descriptor)
bInterfaceNumber         : 0x01 (Interface 1)
bAlternateSetting        : 0x02
bNumEndpoints            : 0x01 (1 Endpoint)
bInterfaceClass          : 0x0E (Video)
bInterfaceSubClass       : 0x02 (Video Streaming)
bInterfaceProtocol       : 0x00
iInterface               : 0x00 (No String Descriptor)
Data (HexDump)           : 09 04 01 02 01 0E 02 00 00                        .........

        ----------------- Endpoint Descriptor -----------------
bLength                  : 0x07 (7 bytes)
bDescriptorType          : 0x05 (Endpoint Descriptor)
bEndpointAddress         : 0x81 (Direction=IN EndpointID=1)
bmAttributes             : 0x05 (TransferType=Isochronous  SyncType=Asynchronous  EndpointType=Data)
wMaxPacketSize           : 0x0100
 Bits 15..13             : 0x00 (reserved, must be zero)
 Bits 12..11             : 0x00 (0 additional transactions per microframe -> allows 1..1024 bytes per packet)
 Bits 10..0              : 0x100 (256 bytes per packet)
bInterval                : 0x01 (1 microframe -> 0.125 ms)
Data (HexDump)           : 07 05 81 05 00 01 01                              .......

        ---------------- Interface Descriptor -----------------
bLength                  : 0x09 (9 bytes)
bDescriptorType          : 0x04 (Interface Descriptor)
bInterfaceNumber         : 0x01 (Interface 1)
bAlternateSetting        : 0x03
bNumEndpoints            : 0x01 (1 Endpoint)
bInterfaceClass          : 0x0E (Video)
bInterfaceSubClass       : 0x02 (Video Streaming)
bInterfaceProtocol       : 0x00
iInterface               : 0x00 (No String Descriptor)
Data (HexDump)           : 09 04 01 03 01 0E 02 00 00                        .........

        ----------------- Endpoint Descriptor -----------------
bLength                  : 0x07 (7 bytes)
bDescriptorType          : 0x05 (Endpoint Descriptor)
bEndpointAddress         : 0x81 (Direction=IN EndpointID=1)
bmAttributes             : 0x05 (TransferType=Isochronous  SyncType=Asynchronous  EndpointType=Data)
wMaxPacketSize           : 0x0320
 Bits 15..13             : 0x00 (reserved, must be zero)
 Bits 12..11             : 0x00 (0 additional transactions per microframe -> allows 1..1024 bytes per packet)
 Bits 10..0              : 0x320 (800 bytes per packet)
bInterval                : 0x01 (1 microframe -> 0.125 ms)
Data (HexDump)           : 07 05 81 05 20 03 01                              .... ..

        ---------------- Interface Descriptor -----------------
bLength                  : 0x09 (9 bytes)
bDescriptorType          : 0x04 (Interface Descriptor)
bInterfaceNumber         : 0x01 (Interface 1)
bAlternateSetting        : 0x04
bNumEndpoints            : 0x01 (1 Endpoint)
bInterfaceClass          : 0x0E (Video)
bInterfaceSubClass       : 0x02 (Video Streaming)
bInterfaceProtocol       : 0x00
iInterface               : 0x00 (No String Descriptor)
Data (HexDump)           : 09 04 01 04 01 0E 02 00 00                        .........

        ----------------- Endpoint Descriptor -----------------
bLength                  : 0x07 (7 bytes)
bDescriptorType          : 0x05 (Endpoint Descriptor)
bEndpointAddress         : 0x81 (Direction=IN EndpointID=1)
bmAttributes             : 0x05 (TransferType=Isochronous  SyncType=Asynchronous  EndpointType=Data)
wMaxPacketSize           : 0x0B20
 Bits 15..13             : 0x00 (reserved, must be zero)
 Bits 12..11             : 0x01 (1 additional transactions per microframe -> allows 513..1024 byte per packet)
 Bits 10..0              : 0x320 (800 bytes per packet)
bInterval                : 0x01 (1 microframe -> 0.125 ms)
Data (HexDump)           : 07 05 81 05 20 0B 01                              .... ..

        ---------------- Interface Descriptor -----------------
bLength                  : 0x09 (9 bytes)
bDescriptorType          : 0x04 (Interface Descriptor)
bInterfaceNumber         : 0x01 (Interface 1)
bAlternateSetting        : 0x05
bNumEndpoints            : 0x01 (1 Endpoint)
bInterfaceClass          : 0x0E (Video)
bInterfaceSubClass       : 0x02 (Video Streaming)
bInterfaceProtocol       : 0x00
iInterface               : 0x00 (No String Descriptor)
Data (HexDump)           : 09 04 01 05 01 0E 02 00 00                        .........

        ----------------- Endpoint Descriptor -----------------
bLength                  : 0x07 (7 bytes)
bDescriptorType          : 0x05 (Endpoint Descriptor)
bEndpointAddress         : 0x81 (Direction=IN EndpointID=1)
bmAttributes             : 0x05 (TransferType=Isochronous  SyncType=Asynchronous  EndpointType=Data)
wMaxPacketSize           : 0x1320
 Bits 15..13             : 0x00 (reserved, must be zero)
 Bits 12..11             : 0x02 (2 additional transactions per microframe -> allows 683..1024 bytes per packet)
 Bits 10..0              : 0x320 (800 bytes per packet)
bInterval                : 0x01 (1 microframe -> 0.125 ms)
Data (HexDump)           : 07 05 81 05 20 13 01                              .... ..

        ---------------- Interface Descriptor -----------------
bLength                  : 0x09 (9 bytes)
bDescriptorType          : 0x04 (Interface Descriptor)
bInterfaceNumber         : 0x01 (Interface 1)
bAlternateSetting        : 0x06
bNumEndpoints            : 0x01 (1 Endpoint)
bInterfaceClass          : 0x0E (Video)
bInterfaceSubClass       : 0x02 (Video Streaming)
bInterfaceProtocol       : 0x00
iInterface               : 0x00 (No String Descriptor)
Data (HexDump)           : 09 04 01 06 01 0E 02 00 00                        .........

        ----------------- Endpoint Descriptor -----------------
bLength                  : 0x07 (7 bytes)
bDescriptorType          : 0x05 (Endpoint Descriptor)
bEndpointAddress         : 0x81 (Direction=IN EndpointID=1)
bmAttributes             : 0x05 (TransferType=Isochronous  SyncType=Asynchronous  EndpointType=Data)
wMaxPacketSize           : 0x1400
 Bits 15..13             : 0x00 (reserved, must be zero)
 Bits 12..11             : 0x02 (2 additional transactions per microframe -> allows 683..1024 bytes per packet)
 Bits 10..0              : 0x400 (1024 bytes per packet)
bInterval                : 0x01 (1 microframe -> 0.125 ms)
Data (HexDump)           : 07 05 81 05 00 14 01                              .......

        ---------------- Interface Descriptor -----------------
bLength                  : 0x09 (9 bytes)
bDescriptorType          : 0x04 (Interface Descriptor)
bInterfaceNumber         : 0x02 (Interface 2)
bAlternateSetting        : 0x00
bNumEndpoints            : 0x00 (Default Control Pipe only)
bInterfaceClass          : 0x0E (Video)
bInterfaceSubClass       : 0x02 (Video Streaming)
bInterfaceProtocol       : 0x00
iInterface               : 0x00 (No String Descriptor)
Data (HexDump)           : 09 04 02 00 00 0E 02 00 00                        .........

        ---- VC-Specific VS Video Input Header Descriptor -----
bLength                  : 0x0E (14 bytes)
bDescriptorType          : 0x24 (Video Streaming Interface)
bDescriptorSubtype       : 0x01 (Input Header)
bNumFormats              : 0x01
wTotalLength             : 0x018E (398 bytes)
bEndpointAddress         : 0x82 (Direction=IN  EndpointID=2)
bmInfo                   : 0x00 (Dynamic Format Change not supported)
bTerminalLink            : 0x06 (Output Terminal ID 6)
bStillCaptureMethod      : 0x00 (No Still Capture)
nbTriggerSupport         : 0x00 (Hardware Triggering not supported)
bTriggerUsage            : 0x00 (Host will initiate still image capture)
bControlSize             : 0x01 (1 bytes each)
Video Payload Format 1   : 0x00
 D0                      : 0   no -  Key Frame Rate
 D1                      : 0   no -  P Frame Rate
 D2                      : 0   no -  Compression Quality
 D3                      : 0   no -  Compression Window Size
 D4                      : 0   no -  Generate Key Frame
 D5                      : 0   no -  Update Frame Segment
 D6                      : 0   no -  Reserved
 D7                      : 0   no -  Reserved
Data (HexDump)           : 0E 24 01 01 8E 01 82 00 06 00 00 00 01 00         .$............

        ---- VS Frame Based Payload Format Type Descriptor ----
*!*ERROR: This format is NOT ALLOWED for UVC 1.0 devices
bLength                  : 0x1C (28 bytes)
bDescriptorType          : 0x24 (Video Streaming Interface)
bDescriptorSubtype       : 0x10 (Frame Based Format Type)
bFormatIndex             : 0x01 (1)
bNumFrameDescriptors     : 0x07 (7)
guidFormat               : {34363248-0000-0010-8000-00AA00389B71} (H264)
bBitsPerPixel            : 0x10 (16 bits)
bDefaultFrameIndex       : 0x01 (1)
bAspectRatioX            : 0x00
bAspectRatioY            : 0x00
bmInterlaceFlags         : 0x00
 D0 IL stream or variable: 0 (no)
 D1 Fields per frame     : 0 (2 fields)
 D2 Field 1 first        : 0 (no)
 D3 Reserved             : 0
 D4..5 Field pattern     : 0 (Field 1 only)
 D6..7 Display Mode      : 0 (Bob only)
bCopyProtect             : 0x00 (No restrictions)
bVariableSize            : 0x01 (Variable Size)
Data (HexDump)           : 1C 24 10 01 07 48 32 36 34 00 00 10 00 80 00 00   .$...H264.......
                           AA 00 38 9B 71 10 01 00 00 00 00 01               ..8.q.......

        ----- VS Frame Based Payload Frame Type Descriptor ----
*!*ERROR  bDescriptorSubtype did not exist in UVC 1.0
bLength                  : 0x32 (50 bytes)
bDescriptorType          : 0x24 (Video Streaming Interface)
bDescriptorSubtype       : 0x11 (Frame Based Payload Frame Type)
bFrameIndex              : 0x01
bmCapabilities           : 0x00
wWidth                   : 0x0780 (1920)
wHeight                  : 0x0438 (1080)
dwMinBitRate             : 0x01A5E000 (27648000 bps -> 3.456 MB/s)
dwMaxBitRate             : 0x09E34000 (165888000 bps -> 20.736 MB/s)
dwDefaultFrameInterval   : 0x00051615 (33.3333 ms -> 30.0000 fps)
bFrameIntervalType       : 0x06 (6 discrete frame intervals supported)
dwBytesPerLine           : 0x00 (0 bytes)
adwFrameInterval[1]      : 0x00051615 (33.3333 ms -> 30.0000 fps)
adwFrameInterval[2]      : 0x00061A80 (40.0000 ms -> 25.0000 fps)
adwFrameInterval[3]      : 0x0007A120 (50.0000 ms -> 20.0000 fps)
adwFrameInterval[4]      : 0x000A2C2A (66.6666 ms -> 15.0000 fps)
adwFrameInterval[5]      : 0x000F4240 (100.0000 ms -> 10.0000 fps)
adwFrameInterval[6]      : 0x001E8480 (200.0000 ms -> 5.0000 fps)
Data (HexDump)           : 32 24 11 01 00 80 07 38 04 00 E0 A5 01 00 40 E3   2$.....8......@.
                           09 15 16 05 00 06 00 00 00 00 15 16 05 00 80 1A   ................
                           06 00 20 A1 07 00 2A 2C 0A 00 40 42 0F 00 80 84   .. ...*,..@B....
                           1E 00                                             ..

        ----- VS Frame Based Payload Frame Type Descriptor ----
*!*ERROR  bDescriptorSubtype did not exist in UVC 1.0
bLength                  : 0x32 (50 bytes)
bDescriptorType          : 0x24 (Video Streaming Interface)
bDescriptorSubtype       : 0x11 (Frame Based Payload Frame Type)
bFrameIndex              : 0x02
bmCapabilities           : 0x00
wWidth                   : 0x0500 (1280)
wHeight                  : 0x02D0 (720)
dwMinBitRate             : 0x01770000 (24576000 bps -> 3.72 MB/s)
dwMaxBitRate             : 0x08CA0000 (147456000 bps -> 18.432 MB/s)
dwDefaultFrameInterval   : 0x00051615 (33.3333 ms -> 30.0000 fps)
bFrameIntervalType       : 0x06 (6 discrete frame intervals supported)
dwBytesPerLine           : 0x00 (0 bytes)
adwFrameInterval[1]      : 0x00051615 (33.3333 ms -> 30.0000 fps)
adwFrameInterval[2]      : 0x00061A80 (40.0000 ms -> 25.0000 fps)
adwFrameInterval[3]      : 0x0007A120 (50.0000 ms -> 20.0000 fps)
adwFrameInterval[4]      : 0x000A2C2A (66.6666 ms -> 15.0000 fps)
adwFrameInterval[5]      : 0x000F4240 (100.0000 ms -> 10.0000 fps)
adwFrameInterval[6]      : 0x001E8480 (200.0000 ms -> 5.0000 fps)
Data (HexDump)           : 32 24 11 02 00 00 05 D0 02 00 00 77 01 00 00 CA   2$.........w....
                           08 15 16 05 00 06 00 00 00 00 15 16 05 00 80 1A   ................
                           06 00 20 A1 07 00 2A 2C 0A 00 40 42 0F 00 80 84   .. ...*,..@B....
                           1E 00                                             ..

        ----- VS Frame Based Payload Frame Type Descriptor ----
*!*ERROR  bDescriptorSubtype did not exist in UVC 1.0
bLength                  : 0x32 (50 bytes)
bDescriptorType          : 0x24 (Video Streaming Interface)
bDescriptorSubtype       : 0x11 (Frame Based Payload Frame Type)
bFrameIndex              : 0x03
bmCapabilities           : 0x00
wWidth                   : 0x0280 (640)
wHeight                  : 0x01E0 (480)
dwMinBitRate             : 0x007D0000 (8192000 bps -> 1.24 MB/s)
dwMaxBitRate             : 0x02EE0000 (49152000 bps -> 6.144 MB/s)
dwDefaultFrameInterval   : 0x00051615 (33.3333 ms -> 30.0000 fps)
bFrameIntervalType       : 0x06 (6 discrete frame intervals supported)
dwBytesPerLine           : 0x00 (0 bytes)
adwFrameInterval[1]      : 0x00051615 (33.3333 ms -> 30.0000 fps)
adwFrameInterval[2]      : 0x00061A80 (40.0000 ms -> 25.0000 fps)
adwFrameInterval[3]      : 0x0007A120 (50.0000 ms -> 20.0000 fps)
adwFrameInterval[4]      : 0x000A2C2A (66.6666 ms -> 15.0000 fps)
adwFrameInterval[5]      : 0x000F4240 (100.0000 ms -> 10.0000 fps)
adwFrameInterval[6]      : 0x001E8480 (200.0000 ms -> 5.0000 fps)
Data (HexDump)           : 32 24 11 03 00 80 02 E0 01 00 00 7D 00 00 00 EE   2$.........}....
                           02 15 16 05 00 06 00 00 00 00 15 16 05 00 80 1A   ................
                           06 00 20 A1 07 00 2A 2C 0A 00 40 42 0F 00 80 84   .. ...*,..@B....
                           1E 00                                             ..

        ----- VS Frame Based Payload Frame Type Descriptor ----
*!*ERROR  bDescriptorSubtype did not exist in UVC 1.0
bLength                  : 0x32 (50 bytes)
bDescriptorType          : 0x24 (Video Streaming Interface)
bDescriptorSubtype       : 0x11 (Frame Based Payload Frame Type)
bFrameIndex              : 0x04
bmCapabilities           : 0x00
wWidth                   : 0x0280 (640)
wHeight                  : 0x0168 (360)
dwMinBitRate             : 0x005DC000 (6144000 bps -> 768 KB/s)
dwMaxBitRate             : 0x02328000 (36864000 bps -> 4.608 MB/s)
dwDefaultFrameInterval   : 0x00051615 (33.3333 ms -> 30.0000 fps)
bFrameIntervalType       : 0x06 (6 discrete frame intervals supported)
dwBytesPerLine           : 0x00 (0 bytes)
adwFrameInterval[1]      : 0x00051615 (33.3333 ms -> 30.0000 fps)
adwFrameInterval[2]      : 0x00061A80 (40.0000 ms -> 25.0000 fps)
adwFrameInterval[3]      : 0x0007A120 (50.0000 ms -> 20.0000 fps)
adwFrameInterval[4]      : 0x000A2C2A (66.6666 ms -> 15.0000 fps)
adwFrameInterval[5]      : 0x000F4240 (100.0000 ms -> 10.0000 fps)
adwFrameInterval[6]      : 0x001E8480 (200.0000 ms -> 5.0000 fps)
Data (HexDump)           : 32 24 11 04 00 80 02 68 01 00 C0 5D 00 00 80 32   2$.....h...]...2
                           02 15 16 05 00 06 00 00 00 00 15 16 05 00 80 1A   ................
                           06 00 20 A1 07 00 2A 2C 0A 00 40 42 0F 00 80 84   .. ...*,..@B....
                           1E 00                                             ..

        ----- VS Frame Based Payload Frame Type Descriptor ----
*!*ERROR  bDescriptorSubtype did not exist in UVC 1.0
bLength                  : 0x32 (50 bytes)
bDescriptorType          : 0x24 (Video Streaming Interface)
bDescriptorSubtype       : 0x11 (Frame Based Payload Frame Type)
bFrameIndex              : 0x05
bmCapabilities           : 0x00
wWidth                   : 0x0140 (320)
wHeight                  : 0x00F0 (240)
dwMinBitRate             : 0x001F4000 (2048000 bps -> 256 KB/s)
dwMaxBitRate             : 0x00BB8000 (12288000 bps -> 1.536 MB/s)
dwDefaultFrameInterval   : 0x00051615 (33.3333 ms -> 30.0000 fps)
bFrameIntervalType       : 0x06 (6 discrete frame intervals supported)
dwBytesPerLine           : 0x00 (0 bytes)
adwFrameInterval[1]      : 0x00051615 (33.3333 ms -> 30.0000 fps)
adwFrameInterval[2]      : 0x00061A80 (40.0000 ms -> 25.0000 fps)
adwFrameInterval[3]      : 0x0007A120 (50.0000 ms -> 20.0000 fps)
adwFrameInterval[4]      : 0x000A2C2A (66.6666 ms -> 15.0000 fps)
adwFrameInterval[5]      : 0x000F4240 (100.0000 ms -> 10.0000 fps)
adwFrameInterval[6]      : 0x001E8480 (200.0000 ms -> 5.0000 fps)
Data (HexDump)           : 32 24 11 05 00 40 01 F0 00 00 40 1F 00 00 80 BB   2$...@....@.....
                           00 15 16 05 00 06 00 00 00 00 15 16 05 00 80 1A   ................
                           06 00 20 A1 07 00 2A 2C 0A 00 40 42 0F 00 80 84   .. ...*,..@B....
                           1E 00                                             ..

        ----- VS Frame Based Payload Frame Type Descriptor ----
*!*ERROR  bDescriptorSubtype did not exist in UVC 1.0
bLength                  : 0x32 (50 bytes)
bDescriptorType          : 0x24 (Video Streaming Interface)
bDescriptorSubtype       : 0x11 (Frame Based Payload Frame Type)
bFrameIndex              : 0x06
bmCapabilities           : 0x00
wWidth                   : 0x0140 (320)
wHeight                  : 0x00B4 (180)
dwMinBitRate             : 0x00177000 (1536000 bps -> 192 KB/s)
dwMaxBitRate             : 0x008CA000 (9216000 bps -> 1.152 MB/s)
dwDefaultFrameInterval   : 0x00051615 (33.3333 ms -> 30.0000 fps)
bFrameIntervalType       : 0x06 (6 discrete frame intervals supported)
dwBytesPerLine           : 0x00 (0 bytes)
adwFrameInterval[1]      : 0x00051615 (33.3333 ms -> 30.0000 fps)
adwFrameInterval[2]      : 0x00061A80 (40.0000 ms -> 25.0000 fps)
adwFrameInterval[3]      : 0x0007A120 (50.0000 ms -> 20.0000 fps)
adwFrameInterval[4]      : 0x000A2C2A (66.6666 ms -> 15.0000 fps)
adwFrameInterval[5]      : 0x000F4240 (100.0000 ms -> 10.0000 fps)
adwFrameInterval[6]      : 0x001E8480 (200.0000 ms -> 5.0000 fps)
Data (HexDump)           : 32 24 11 06 00 40 01 B4 00 00 70 17 00 00 A0 8C   2$...@....p.....
                           00 15 16 05 00 06 00 00 00 00 15 16 05 00 80 1A   ................
                           06 00 20 A1 07 00 2A 2C 0A 00 40 42 0F 00 80 84   .. ...*,..@B....
                           1E 00                                             ..

        ----- VS Frame Based Payload Frame Type Descriptor ----
*!*ERROR  bDescriptorSubtype did not exist in UVC 1.0
bLength                  : 0x32 (50 bytes)
bDescriptorType          : 0x24 (Video Streaming Interface)
bDescriptorSubtype       : 0x11 (Frame Based Payload Frame Type)
bFrameIndex              : 0x07
bmCapabilities           : 0x00
wWidth                   : 0x0780 (1920)
wHeight                  : 0x0438 (1080)
dwMinBitRate             : 0x01A5E000 (27648000 bps -> 3.456 MB/s)
dwMaxBitRate             : 0x09E34000 (165888000 bps -> 20.736 MB/s)
dwDefaultFrameInterval   : 0x00051615 (33.3333 ms -> 30.0000 fps)
bFrameIntervalType       : 0x06 (6 discrete frame intervals supported)
dwBytesPerLine           : 0x00 (0 bytes)
adwFrameInterval[1]      : 0x00051615 (33.3333 ms -> 30.0000 fps)
adwFrameInterval[2]      : 0x00061A80 (40.0000 ms -> 25.0000 fps)
adwFrameInterval[3]      : 0x0007A120 (50.0000 ms -> 20.0000 fps)
adwFrameInterval[4]      : 0x000A2C2A (66.6666 ms -> 15.0000 fps)
adwFrameInterval[5]      : 0x000F4240 (100.0000 ms -> 10.0000 fps)
adwFrameInterval[6]      : 0x001E8480 (200.0000 ms -> 5.0000 fps)
Data (HexDump)           : 32 24 11 07 00 80 07 38 04 00 E0 A5 01 00 40 E3   2$.....8......@.
                           09 15 16 05 00 06 00 00 00 00 15 16 05 00 80 1A   ................
                           06 00 20 A1 07 00 2A 2C 0A 00 40 42 0F 00 80 84   .. ...*,..@B....
                           1E 00                                             ..

        ------- VS Color Matching Descriptor Descriptor -------
bLength                  : 0x06 (6 bytes)
bDescriptorType          : 0x24 (Video Streaming Interface)
bDescriptorSubtype       : 0x0D (Color Matching)
bColorPrimaries          : 0x01 (BT.709, sRGB)
bTransferCharacteristics : 0x01 (BT.709)
bMatrixCoefficients      : 0x04 (SMPTE 170M)
Data (HexDump)           : 06 24 0D 01 01 04                                 .$....

        ---------------- Interface Descriptor -----------------
bLength                  : 0x09 (9 bytes)
bDescriptorType          : 0x04 (Interface Descriptor)
bInterfaceNumber         : 0x02 (Interface 2)
bAlternateSetting        : 0x01
bNumEndpoints            : 0x01 (1 Endpoint)
bInterfaceClass          : 0x0E (Video)
bInterfaceSubClass       : 0x02 (Video Streaming)
bInterfaceProtocol       : 0x00
iInterface               : 0x00 (No String Descriptor)
Data (HexDump)           : 09 04 02 01 01 0E 02 00 00                        .........

        ----------------- Endpoint Descriptor -----------------
bLength                  : 0x07 (7 bytes)
bDescriptorType          : 0x05 (Endpoint Descriptor)
bEndpointAddress         : 0x82 (Direction=IN EndpointID=2)
bmAttributes             : 0x05 (TransferType=Isochronous  SyncType=Asynchronous  EndpointType=Data)
wMaxPacketSize           : 0x0080
 Bits 15..13             : 0x00 (reserved, must be zero)
 Bits 12..11             : 0x00 (0 additional transactions per microframe -> allows 1..1024 bytes per packet)
 Bits 10..0              : 0x80 (128 bytes per packet)
bInterval                : 0x01 (1 microframe -> 0.125 ms)
Data (HexDump)           : 07 05 82 05 80 00 01                              .......

        ---------------- Interface Descriptor -----------------
bLength                  : 0x09 (9 bytes)
bDescriptorType          : 0x04 (Interface Descriptor)
bInterfaceNumber         : 0x02 (Interface 2)
bAlternateSetting        : 0x02
bNumEndpoints            : 0x01 (1 Endpoint)
bInterfaceClass          : 0x0E (Video)
bInterfaceSubClass       : 0x02 (Video Streaming)
bInterfaceProtocol       : 0x00
iInterface               : 0x00 (No String Descriptor)
Data (HexDump)           : 09 04 02 02 01 0E 02 00 00                        .........

        ----------------- Endpoint Descriptor -----------------
bLength                  : 0x07 (7 bytes)
bDescriptorType          : 0x05 (Endpoint Descriptor)
bEndpointAddress         : 0x82 (Direction=IN EndpointID=2)
bmAttributes             : 0x05 (TransferType=Isochronous  SyncType=Asynchronous  EndpointType=Data)
wMaxPacketSize           : 0x0100
 Bits 15..13             : 0x00 (reserved, must be zero)
 Bits 12..11             : 0x00 (0 additional transactions per microframe -> allows 1..1024 bytes per packet)
 Bits 10..0              : 0x100 (256 bytes per packet)
bInterval                : 0x01 (1 microframe -> 0.125 ms)
Data (HexDump)           : 07 05 82 05 00 01 01                              .......

        ---------------- Interface Descriptor -----------------
bLength                  : 0x09 (9 bytes)
bDescriptorType          : 0x04 (Interface Descriptor)
bInterfaceNumber         : 0x02 (Interface 2)
bAlternateSetting        : 0x03
bNumEndpoints            : 0x01 (1 Endpoint)
bInterfaceClass          : 0x0E (Video)
bInterfaceSubClass       : 0x02 (Video Streaming)
bInterfaceProtocol       : 0x00
iInterface               : 0x00 (No String Descriptor)
Data (HexDump)           : 09 04 02 03 01 0E 02 00 00                        .........

        ----------------- Endpoint Descriptor -----------------
bLength                  : 0x07 (7 bytes)
bDescriptorType          : 0x05 (Endpoint Descriptor)
bEndpointAddress         : 0x82 (Direction=IN EndpointID=2)
bmAttributes             : 0x05 (TransferType=Isochronous  SyncType=Asynchronous  EndpointType=Data)
wMaxPacketSize           : 0x0320
 Bits 15..13             : 0x00 (reserved, must be zero)
 Bits 12..11             : 0x00 (0 additional transactions per microframe -> allows 1..1024 bytes per packet)
 Bits 10..0              : 0x320 (800 bytes per packet)
bInterval                : 0x01 (1 microframe -> 0.125 ms)
Data (HexDump)           : 07 05 82 05 20 03 01                              .... ..

        ---------------- Interface Descriptor -----------------
bLength                  : 0x09 (9 bytes)
bDescriptorType          : 0x04 (Interface Descriptor)
bInterfaceNumber         : 0x02 (Interface 2)
bAlternateSetting        : 0x04
bNumEndpoints            : 0x01 (1 Endpoint)
bInterfaceClass          : 0x0E (Video)
bInterfaceSubClass       : 0x02 (Video Streaming)
bInterfaceProtocol       : 0x00
iInterface               : 0x00 (No String Descriptor)
Data (HexDump)           : 09 04 02 04 01 0E 02 00 00                        .........

        ----------------- Endpoint Descriptor -----------------
bLength                  : 0x07 (7 bytes)
bDescriptorType          : 0x05 (Endpoint Descriptor)
bEndpointAddress         : 0x82 (Direction=IN EndpointID=2)
bmAttributes             : 0x05 (TransferType=Isochronous  SyncType=Asynchronous  EndpointType=Data)
wMaxPacketSize           : 0x0B20
 Bits 15..13             : 0x00 (reserved, must be zero)
 Bits 12..11             : 0x01 (1 additional transactions per microframe -> allows 513..1024 byte per packet)
 Bits 10..0              : 0x320 (800 bytes per packet)
bInterval                : 0x01 (1 microframe -> 0.125 ms)
Data (HexDump)           : 07 05 82 05 20 0B 01                              .... ..

        ---------------- Interface Descriptor -----------------
bLength                  : 0x09 (9 bytes)
bDescriptorType          : 0x04 (Interface Descriptor)
bInterfaceNumber         : 0x02 (Interface 2)
bAlternateSetting        : 0x05
bNumEndpoints            : 0x01 (1 Endpoint)
bInterfaceClass          : 0x0E (Video)
bInterfaceSubClass       : 0x02 (Video Streaming)
bInterfaceProtocol       : 0x00
iInterface               : 0x00 (No String Descriptor)
Data (HexDump)           : 09 04 02 05 01 0E 02 00 00                        .........

        ----------------- Endpoint Descriptor -----------------
bLength                  : 0x07 (7 bytes)
bDescriptorType          : 0x05 (Endpoint Descriptor)
bEndpointAddress         : 0x82 (Direction=IN EndpointID=2)
bmAttributes             : 0x05 (TransferType=Isochronous  SyncType=Asynchronous  EndpointType=Data)
wMaxPacketSize           : 0x1320
 Bits 15..13             : 0x00 (reserved, must be zero)
 Bits 12..11             : 0x02 (2 additional transactions per microframe -> allows 683..1024 bytes per packet)
 Bits 10..0              : 0x320 (800 bytes per packet)
bInterval                : 0x01 (1 microframe -> 0.125 ms)
Data (HexDump)           : 07 05 82 05 20 13 01                              .... ..

        ---------------- Interface Descriptor -----------------
bLength                  : 0x09 (9 bytes)
bDescriptorType          : 0x04 (Interface Descriptor)
bInterfaceNumber         : 0x02 (Interface 2)
bAlternateSetting        : 0x06
bNumEndpoints            : 0x01 (1 Endpoint)
bInterfaceClass          : 0x0E (Video)
bInterfaceSubClass       : 0x02 (Video Streaming)
bInterfaceProtocol       : 0x00
iInterface               : 0x00 (No String Descriptor)
Data (HexDump)           : 09 04 02 06 01 0E 02 00 00                        .........

        ----------------- Endpoint Descriptor -----------------
bLength                  : 0x07 (7 bytes)
bDescriptorType          : 0x05 (Endpoint Descriptor)
bEndpointAddress         : 0x82 (Direction=IN EndpointID=2)
bmAttributes             : 0x05 (TransferType=Isochronous  SyncType=Asynchronous  EndpointType=Data)
wMaxPacketSize           : 0x1400
 Bits 15..13             : 0x00 (reserved, must be zero)
 Bits 12..11             : 0x02 (2 additional transactions per microframe -> allows 683..1024 bytes per packet)
 Bits 10..0              : 0x400 (1024 bytes per packet)
bInterval                : 0x01 (1 microframe -> 0.125 ms)
Data (HexDump)           : 07 05 82 05 00 14 01                              .......

        ------------------- IAD Descriptor --------------------
bLength                  : 0x08 (8 bytes)
bDescriptorType          : 0x0B (Interface Association Descriptor)
bFirstInterface          : 0x03 (Interface 3)
bInterfaceCount          : 0x02 (2 Interfaces)
bFunctionClass           : 0x01 (Audio)
bFunctionSubClass        : 0x00 (undefined)
bFunctionProtocol        : 0x00
iFunction                : 0x00 (No String Descriptor)
Data (HexDump)           : 08 0B 03 02 01 00 00 00                           ........

        ---------------- Interface Descriptor -----------------
bLength                  : 0x09 (9 bytes)
bDescriptorType          : 0x04 (Interface Descriptor)
bInterfaceNumber         : 0x03 (Interface 3)
bAlternateSetting        : 0x00
bNumEndpoints            : 0x00 (Default Control Pipe only)
bInterfaceClass          : 0x01 (Audio)
bInterfaceSubClass       : 0x01 (Audio Control)
bInterfaceProtocol       : 0x00
iInterface               : 0x00 (No String Descriptor)
Data (HexDump)           : 09 04 03 00 00 01 01 00 00                        .........

        ------ Audio Control Interface Header Descriptor ------
bLength                  : 0x09 (9 bytes)
bDescriptorType          : 0x24 (Audio Interface Descriptor)
bDescriptorSubtype       : 0x01 (Header)
bcdADC                   : 0x0100
wTotalLength             : 0x002B (43 bytes)
bInCollection            : 0x01
baInterfaceNr[1]         : 0x04
Data (HexDump)           : 09 24 01 00 01 2B 00 01 04                        .$...+...

        ------- Audio Control Input Terminal Descriptor -------
bLength                  : 0x0C (12 bytes)
bDescriptorType          : 0x24 (Audio Interface Descriptor)
bDescriptorSubtype       : 0x02 (Input Terminal)
bTerminalID              : 0x01
wTerminalType            : 0x0201 (Microphone)
bAssocTerminal           : 0x00
bNrChannels              : 0x02 (2 channels)
wChannelConfig           : 0x0000 (-)
iChannelNames            : 0x00 (No String Descriptor)
iTerminal                : 0x00 (No String Descriptor)
Data (HexDump)           : 0C 24 02 01 01 02 00 02 00 00 00 00               .$..........

        -------- Audio Control Feature Unit Descriptor --------
bLength                  : 0x0D (13 bytes)
bDescriptorType          : 0x24 (Audio Interface Descriptor)
bDescriptorSubtype       : 0x06 (Feature Unit)
bUnitID                  : 0x02 (2)
bSourceID                : 0x01 (1)
bControlSize             : 0x02 (2 bytes per control)
bmaControls[0]           : 0x01, 0x00
 D0: Mute                : 1
 D1: Volume              : 0
 D2: Bass                : 0
 D3: Mid                 : 0
 D4: Treble              : 0
 D5: Graphic Equalizer   : 0
 D6: Automatic Gain      : 0
 D7: Delay               : 0
 D8: Bass Boost          : 0
 D9: Loudness            : 0
 D10: Reserved           : 0
 D11: Reserved           : 0
 D12: Reserved           : 0
 D13: Reserved           : 0
 D14: Reserved           : 0
 D15: Reserved           : 0
bmaControls[1]           : 0x02, 0x00
 D0: Mute                : 0
 D1: Volume              : 1
 D2: Bass                : 0
 D3: Mid                 : 0
 D4: Treble              : 0
 D5: Graphic Equalizer   : 0
 D6: Automatic Gain      : 0
 D7: Delay               : 0
 D8: Bass Boost          : 0
 D9: Loudness            : 0
 D10: Reserved           : 0
 D11: Reserved           : 0
 D12: Reserved           : 0
 D13: Reserved           : 0
 D14: Reserved           : 0
 D15: Reserved           : 0
bmaControls[2]           : 0x02, 0x00
 D0: Mute                : 0
 D1: Volume              : 1
 D2: Bass                : 0
 D3: Mid                 : 0
 D4: Treble              : 0
 D5: Graphic Equalizer   : 0
 D6: Automatic Gain      : 0
 D7: Delay               : 0
 D8: Bass Boost          : 0
 D9: Loudness            : 0
 D10: Reserved           : 0
 D11: Reserved           : 0
 D12: Reserved           : 0
 D13: Reserved           : 0
 D14: Reserved           : 0
 D15: Reserved           : 0
iFeature                 : 0x00 (No String Descriptor)
Data (HexDump)           : 0D 24 06 02 01 02 01 00 02 00 02 00 00            .$...........

        ------- Audio Control Output Terminal Descriptor ------
bLength                  : 0x09 (9 bytes)
bDescriptorType          : 0x24 (Audio Interface Descriptor)
bDescriptorSubtype       : 0x03 (Output Terminal)
bTerminalID              : 0x03
wTerminalType            : 0x0101 (USB Streaming)
bAssocTerminal           : 0x00 (0)
bSourceID                : 0x02 (2)
iTerminal                : 0x00 (No String Descriptor)
Data (HexDump)           : 09 24 03 03 01 01 00 02 00                        .$.......

        ---------------- Interface Descriptor -----------------
bLength                  : 0x09 (9 bytes)
bDescriptorType          : 0x04 (Interface Descriptor)
bInterfaceNumber         : 0x04 (Interface 4)
bAlternateSetting        : 0x00
bNumEndpoints            : 0x00 (Default Control Pipe only)
bInterfaceClass          : 0x01 (Audio)
bInterfaceSubClass       : 0x02 (Audio Streaming)
bInterfaceProtocol       : 0x00
iInterface               : 0x00 (No String Descriptor)
Data (HexDump)           : 09 04 04 00 00 01 02 00 00                        .........

        ---------------- Interface Descriptor -----------------
bLength                  : 0x09 (9 bytes)
bDescriptorType          : 0x04 (Interface Descriptor)
bInterfaceNumber         : 0x04 (Interface 4)
bAlternateSetting        : 0x01
bNumEndpoints            : 0x01 (1 Endpoint)
bInterfaceClass          : 0x01 (Audio)
bInterfaceSubClass       : 0x02 (Audio Streaming)
bInterfaceProtocol       : 0x00
iInterface               : 0x00 (No String Descriptor)
Data (HexDump)           : 09 04 04 01 01 01 02 00 00                        .........

        -------- Audio Streaming Interface Descriptor ---------
bLength                  : 0x07 (7 bytes)
bDescriptorType          : 0x24 (Audio Interface Descriptor)
bDescriptorSubtype       : 0x01 (AS_GENERAL)
bTerminalLink            : 0x03 (Terminal ID 3)
bDelay                   : 0x01 (1 frame)
wFormatTag               : 0x0001 (PCM)
Data (HexDump)           : 07 24 01 03 01 01 00                              .$.....

        ------- Audio Streaming Format Type Descriptor --------
bLength                  : 0x1D (29 bytes)
bDescriptorType          : 0x24 (Audio Interface Descriptor)
bDescriptorSubtype       : 0x02 (Format Type)
bFormatType              : 0x01 (FORMAT_TYPE_I)
bNrChannels              : 0x02 (2 channels)
bSubframeSize            : 0x02 (2 bytes per subframe)
bBitResolution           : 0x10 (16 bits per sample)
bSamFreqType             : 0x07 (supports 7 sample frequencies)
tSamFreq[1]              : 0x01F40 (8000 Hz)
tSamFreq[2]              : 0x02B11 (11025 Hz)
tSamFreq[3]              : 0x03E80 (16000 Hz)
tSamFreq[4]              : 0x05622 (22050 Hz)
tSamFreq[5]              : 0x05DC0 (24000 Hz)
tSamFreq[6]              : 0x0AC44 (44100 Hz)
tSamFreq[7]              : 0x0BB80 (48000 Hz)
Data (HexDump)           : 1D 24 02 01 02 02 10 07 40 1F 00 11 2B 00 80 3E   .$......@...+..>
                           00 22 56 00 C0 5D 00 44 AC 00 80 BB 00            ."V..].D.....

        ----------------- Endpoint Descriptor -----------------
bLength                  : 0x09 (9 bytes)
bDescriptorType          : 0x05 (Endpoint Descriptor)
bEndpointAddress         : 0x84 (Direction=IN EndpointID=4)
bmAttributes             : 0x05 (TransferType=Isochronous  SyncType=Asynchronous  EndpointType=Data)
wMaxPacketSize           : 0x0192
 Bits 15..13             : 0x00 (reserved, must be zero)
 Bits 12..11             : 0x00 (0 additional transactions per microframe -> allows 1..1024 bytes per packet)
 Bits 10..0              : 0x192 (402 bytes per packet)
bInterval                : 0x04 (4 ms)
bRefresh                 : 0x00
bSynchAddress            : 0x00
Data (HexDump)           : 09 05 84 05 92 01 04 00 00                        .........

        ----------- Audio Data Endpoint Descriptor ------------
bLength                  : 0x07 (7 bytes)
bDescriptorType          : 0x25 (Audio Endpoint Descriptor)
bDescriptorSubtype       : 0x01 (General)
bmAttributes             : 0x01
 D0   : Sampling Freq    : 0x01 (supported)
 D1   : Pitch            : 0x00 (not supported)
 D6..2: Reserved         : 0x00
 D7   : MaxPacketsOnly   : 0x00 (no)
bLockDelayUnits          : 0x00 (Undefined)
wLockDelay               : 0x0192
Data (HexDump)           : 07 25 01 01 00 92 01                              .%.....

    --------- Device Qualifier Descriptor (for Full-Speed) --------
bLength                  : 0x0A (10 bytes)
bDescriptorType          : 0x06 (Device_qualifier Descriptor)
bcdUSB                   : 0x200 (USB Version 2.0)
bDeviceClass             : 0xEF (Miscellaneous)
bDeviceSubClass          : 0x02
bDeviceProtocol          : 0x01 (IAD - Interface Association Descriptor)
bMaxPacketSize0          : 0x40 (64 Bytes)
bNumConfigurations       : 0x01 (1 other-speed configuration)
bReserved                : 0x00
Data (HexDump)           : 0A 06 00 02 EF 02 01 40 01 00                     .......@..

    ------------ Other Speed Configuration Descriptor -------------
bLength                  : 0x09 (9 bytes)
bDescriptorType          : 0x07 (Other_speed_configuration Descriptor)
wTotalLength             : 0x0040 (64 bytes)
bNumInterfaces           : 0x01 (1 Interface)
bConfigurationValue      : 0x01 (Configuration 1)
iConfiguration           : 0x00 (No String Descriptor)
bmAttributes             : 0x80
 D7: Reserved, set 1     : 0x01
 D6: Self Powered        : 0x00 (no)
 D5: Remote Wakeup       : 0x00 (no)
 D4..0: Reserved, set 0  : 0x00
MaxPower                 : 0xFA (500 mA)
Data (HexDump)           : 09 07 40 00 01 01 00 80 FA 08 0B 00 01 0E 03 00   ..@.............
                           01 09 04 00 00 00 0E 01 00 01 0C 24 01 00 01 26   ...........$...&
                           00 80 8D 5B 00 00 09 24 03 05 01 01 00 02 00 11   ...[...$........
                           24 02 01 01 02 00 00 00 00 00 00 00 00 02 00 00   $...............

        ------------------- IAD Descriptor --------------------
bLength                  : 0x08 (8 bytes)
bDescriptorType          : 0x0B (Interface Association Descriptor)
bFirstInterface          : 0x00 (Interface 0)
bInterfaceCount          : 0x01 (1 Interface)
*!*ERROR  bInterfaceCount must be greater than 1
bFunctionClass           : 0x0E (Video)
bFunctionSubClass        : 0x03 (Video Interface Collection)
bFunctionProtocol        : 0x00 (PC_PROTOCOL_UNDEFINED)
iFunction                : 0x01 (String Descriptor 1)
 Language 0x0409         : "292A-IPC-OV2710"
Data (HexDump)           : 08 0B 00 01 0E 03 00 01                           ........

        ---------------- Interface Descriptor -----------------
bLength                  : 0x09 (9 bytes)
bDescriptorType          : 0x04 (Interface Descriptor)
bInterfaceNumber         : 0x00 (Interface 0)
bAlternateSetting        : 0x00
bNumEndpoints            : 0x00 (Default Control Pipe only)
bInterfaceClass          : 0x0E (Video)
bInterfaceSubClass       : 0x01 (Video Control)
bInterfaceProtocol       : 0x00
iInterface               : 0x01 (String Descriptor 1)
 Language 0x0409         : "292A-IPC-OV2710"
Data (HexDump)           : 09 04 00 00 00 0E 01 00 01                        .........

        ------- Video Control Interface Header Descriptor -----
bLength                  : 0x0C (12 bytes)
bDescriptorType          : 0x24 (Video Control Interface)
bDescriptorSubtype       : 0x01 (Video Control Header)
bcdUVC                   : 0x0100 (UVC Version 1.00)
wTotalLength             : 0x0026 (38 bytes)
dwClockFreq              : 0x005B8D80 (6 MHz)
bInCollection            : 0x00 (0 VideoStreaming interface)
Data (HexDump)           : 0C 24 01 00 01 26 00 80 8D 5B 00 00               .$...&...[..

        ------- Video Control Output Terminal Descriptor ------
bLength                  : 0x09 (9 bytes)
bDescriptorType          : 0x24 (Video Control Interface)
bDescriptorSubtype       : 0x03 (Output Terminal)
bTerminalID              : 0x05 (5)
wTerminalType            : 0x0101 (TT_STREAMING)
bAssocTerminal           : 0x00 (Not associated with an Input Terminal)
bSourceID                : 0x02 (2)
iTerminal                : 0x00 (No String Descriptor)
Data (HexDump)           : 09 24 03 05 01 01 00 02 00                        .$.......

        -------- Video Control Input Terminal Descriptor ------
bLength                  : 0x11 (17 bytes)
bDescriptorType          : 0x24 (Video Control Interface)
bDescriptorSubtype       : 0x02 (Input Terminal)
bTerminalID              : 0x01 (1)
wTerminalType            : 0x0201 (ITT_CAMERA)
bAssocTerminal           : 0x00 (Not associated with an Output Terminal)
iTerminal                : 0x00 (No String Descriptor)
Camera Input Terminal Data:
wObjectiveFocalLengthMin : 0x0000
wObjectiveFocalLengthMax : 0x0000
wOcularFocalLength       : 0x0000
bControlSize             : 0x02 (2 bytes)
bmControls               : 0x00, 0x00
 D0                      : 0   no -  Scanning Mode
 D1                      : 0   no -  Auto-Exposure Mode
 D2                      : 0   no -  Auto-Exposure Priority
 D3                      : 0   no -  Exposure Time (Absolute)
 D4                      : 0   no -  Exposure Time (Relative)
 D5                      : 0   no -  Focus (Absolute)
 D6                      : 0   no -  Focus (Relative)
 D7                      : 0   no -  Iris (Absolute)
 D8                      : 0   no -  Iris (Relative)
 D9                      : 0   no -  Zoom (Absolute)
 D10                     : 0   no -  Zoom (Relative)
 D11                     : 0   no -  Pan (Absolute)
 D12                     : 0   no -  Pan (Relative)
 D13                     : 0   no -  Roll (Absolute)
 D14                     : 0   no -  Roll (Relative)
 D15                     : 0   no -  Tilt (Absolute)
Data (HexDump)           : 11 24 02 01 01 02 00 00 00 00 00 00 00 00 02 00   .$..............
                           00                                                .

      -------------------- String Descriptors -------------------
             ------ String Descriptor 0 ------
bLength                  : 0x04 (4 bytes)
bDescriptorType          : 0x03 (String Descriptor)
Language ID[0]           : 0x0409 (English - United States)
Data (HexDump)           : 04 03 09 04                                       ....
             ------ String Descriptor 1 ------
bLength                  : 0x20 (32 bytes)
bDescriptorType          : 0x03 (String Descriptor)
Language 0x0409          : "292A-IPC-OV2710"
Data (HexDump)           : 20 03 32 00 39 00 32 00 41 00 2D 00 49 00 50 00    .2.9.2.A.-.I.P.
                           43 00 2D 00 4F 00 56 00 32 00 37 00 31 00 30 00   C.-.O.V.2.7.1.0.
             ------ String Descriptor 2 ------
bLength                  : 0x36 (54 bytes)
bDescriptorType          : 0x03 (String Descriptor)
Language 0x0409          : "Sonix Technology Co., Ltd."
Data (HexDump)           : 36 03 53 00 6F 00 6E 00 69 00 78 00 20 00 54 00   6.S.o.n.i.x. .T.
                           65 00 63 00 68 00 6E 00 6F 00 6C 00 6F 00 67 00   e.c.h.n.o.l.o.g.
                           79 00 20 00 43 00 6F 00 2E 00 2C 00 20 00 4C 00   y. .C.o...,. .L.
                           74 00 64 00 2E 00                                 t.d...
             ------ String Descriptor 3 ------
bLength                  : 0x0E (14 bytes)
bDescriptorType          : 0x03 (String Descriptor)
Language 0x0409          : "SN0001"
Data (HexDump)           : 0E 03 53 00 4E 00 30 00 30 00 30 00 31 00         ..S.N.0.0.0.1.
             ------ String Descriptor 4 ------
bLength                  : 0x1E (30 bytes)
bDescriptorType          : 0x03 (String Descriptor)
Language 0x0409          : "USB Microphone"
Data (HexDump)           : 1E 03 55 00 53 00 42 00 20 00 4D 00 69 00 63 00   ..U.S.B. .M.i.c.
                           72 00 6F 00 70 00 68 00 6F 00 6E 00 65 00         r.o.p.h.o.n.e.
             ------ String Descriptor 5 ------
bLength                  : 0x16 (22 bytes)
bDescriptorType          : 0x03 (String Descriptor)
Language 0x0409          : "USB Camera"
Data (HexDump)           : 16 03 55 00 53 00 42 00 20 00 43 00 61 00 6D 00   ..U.S.B. .C.a.m.
                           65 00 72 00 61 00                                 e.r.a.
             ------ String Descriptor 6 ------
bLength                  : 0x04 (4 bytes)
bDescriptorType          : 0x03 (String Descriptor)
Language 0x0409          : "°"  *!*ERROR  contains 1 NULL character
Data (HexDump)           : 04 03 00 00                                       ....
             ------ String Descriptor 7 ------
bLength                  : 0x04 (4 bytes)
bDescriptorType          : 0x03 (String Descriptor)
Language 0x0409          : "°"  *!*ERROR  contains 1 NULL character
Data (HexDump)           : 04 03 00 00                                       ....
             ------ String Descriptor 8 ------
bLength                  : 0x04 (4 bytes)
bDescriptorType          : 0x03 (String Descriptor)
Language 0x0409          : "°"  *!*ERROR  contains 1 NULL character
Data (HexDump)           : 04 03 00 00                                       ....
